GAS LISTING /tmp/ccpYVhxp.s 			page 1


   1              		.file	"syscall_c.cpp"
   2              		.option pic
   3              		.option norelax
   4              		.text
   5              	.Ltext0:
   6              		.align	2
   7              		.globl	ecall_handler
   9              	ecall_handler:
  10              	.LFB14:
  11              		.file 1 "src/syscall_c.cpp"
   1:src/syscall_c.cpp **** #include "../lib/hw.h"
   2:src/syscall_c.cpp **** #include "../h/MemoryAllocator.hpp"
   3:src/syscall_c.cpp **** #include "../h/_thread.hpp"
   4:src/syscall_c.cpp **** #include "../h/console.h"
   5:src/syscall_c.cpp **** #include "../h/_sem.hpp"
   6:src/syscall_c.cpp **** #include "../h/_buffer.hpp"
   7:src/syscall_c.cpp **** 
   8:src/syscall_c.cpp **** 
   9:src/syscall_c.cpp **** enum sys_call {
  10:src/syscall_c.cpp ****     MEM_ALLOC = 0x01,
  11:src/syscall_c.cpp ****     MEM_FREE = 0x02,
  12:src/syscall_c.cpp ****     THREAD_CREATE = 0x11,
  13:src/syscall_c.cpp ****     THREAD_EXIT = 0x12,
  14:src/syscall_c.cpp ****     THREAD_DISPATCH = 0x13,
  15:src/syscall_c.cpp ****     THREAD_JOIN = 0x14,
  16:src/syscall_c.cpp ****     SEM_OPEN = 0x21,
  17:src/syscall_c.cpp ****     SEM_CLOSE = 0x22,
  18:src/syscall_c.cpp ****     SEM_WAIT = 0x23,
  19:src/syscall_c.cpp ****     SEM_SIGNAL = 0x24,
  20:src/syscall_c.cpp ****     SLEEP = 0x31,
  21:src/syscall_c.cpp ****     GETC = 0x41,
  22:src/syscall_c.cpp ****     PUTC = 0x42,
  23:src/syscall_c.cpp ****     DISABLE_INTERRUPT = 0x60,
  24:src/syscall_c.cpp ****     ENABLE_INTERRUPT = 0x61
  25:src/syscall_c.cpp **** };
  26:src/syscall_c.cpp **** 
  27:src/syscall_c.cpp **** inline void setSEPC()
  28:src/syscall_c.cpp **** {
  29:src/syscall_c.cpp ****     uint64 sepc;
  30:src/syscall_c.cpp ****     __asm__ volatile("csrr %0, sepc" : "=r"(sepc));
  31:src/syscall_c.cpp ****     sepc += 4;
  32:src/syscall_c.cpp ****     __asm__ volatile("csrw sepc, %0" : : "r"(sepc));
  33:src/syscall_c.cpp **** }
  34:src/syscall_c.cpp **** 
  35:src/syscall_c.cpp **** #ifdef __cplusplus
  36:src/syscall_c.cpp **** extern "C"
  37:src/syscall_c.cpp **** #endif
  38:src/syscall_c.cpp **** void ecall_handler()
  39:src/syscall_c.cpp **** {
  12              		.loc 1 39 1
  13              		.cfi_startproc
  14 0000 130101FB 		addi	sp,sp,-80
  15              		.cfi_def_cfa_offset 80
  16 0004 23341104 		sd	ra,72(sp)
  17 0008 23308104 		sd	s0,64(sp)
  18 000c 233C9102 		sd	s1,56(sp)
  19              		.cfi_offset 1, -8
GAS LISTING /tmp/ccpYVhxp.s 			page 2


  20              		.cfi_offset 8, -16
  21              		.cfi_offset 9, -24
  22 0010 13040105 		addi	s0,sp,80
  23              		.cfi_def_cfa 8, 0
  40:src/syscall_c.cpp ****     uint64 volatile a0, a1, a2, a3;
  24              		.loc 1 40 5
  41:src/syscall_c.cpp ****     __asm__ volatile("mv %0, a0" : "=r"(a0));
  25              		.loc 1 41 5
  26              		.loc 1 41 45 is_stmt 0
  27              	#APP
  28              	# 41 "src/syscall_c.cpp" 1
  42              	    __asm__ volatile("mv %0, a1" : "=r"(a1));
  29              		mv a5, a0
  30              	# 0 "" 2
  31              	#NO_APP
  32 0018 233CF4FC 		sd	a5,-40(s0)
  33              		.loc 1 42 5 is_stmt 1
  34              		.loc 1 42 45 is_stmt 0
  35              	#APP
  36              	# 42 "src/syscall_c.cpp" 1
  43              	    __asm__ volatile("mv %0, a2" : "=r"(a2));
  37              		mv a5, a1
  38              	# 0 "" 2
  39              	#NO_APP
  40 0020 2338F4FC 		sd	a5,-48(s0)
  41              		.loc 1 43 5 is_stmt 1
  42              		.loc 1 43 45 is_stmt 0
  43              	#APP
  44              	# 43 "src/syscall_c.cpp" 1
  44              	    __asm__ volatile("mv %0, a3" : "=r"(a3));
  45              		mv a5, a2
  46              	# 0 "" 2
  47              	#NO_APP
  48 0028 2334F4FC 		sd	a5,-56(s0)
  49              		.loc 1 44 5 is_stmt 1
  50              		.loc 1 44 45 is_stmt 0
  51              	#APP
  52              	# 44 "src/syscall_c.cpp" 1
  45              	    uint64 scause;
  53              		mv a5, a3
  54              	# 0 "" 2
  55              	#NO_APP
  56 0030 2330F4FC 		sd	a5,-64(s0)
  57              		.loc 1 45 5 is_stmt 1
  46:src/syscall_c.cpp ****     __asm__ volatile("csrr %0, scause": "=r"(scause));
  58              		.loc 1 46 5
  59              		.loc 1 46 54 is_stmt 0
  60              	#APP
  61              	# 46 "src/syscall_c.cpp" 1
  47              	    if (scause == 0x0000000000000008UL || scause == 0x0000000000000009UL)
  62              		csrr a5, scause
  63              	# 0 "" 2
  64              	.LVL0:
  65              		.loc 1 47 5 is_stmt 1
  66              	#NO_APP
  67              	.LBB61:
  68              		.loc 1 47 40 is_stmt 0
GAS LISTING /tmp/ccpYVhxp.s 			page 3


  69 0038 938787FF 		addi	a5,a5,-8
  70              	.LVL1:
  71              		.loc 1 47 5
  72 003c 13071000 		li	a4,1
  73 0040 637CF700 		bleu	a5,a4,.L22
  74              	.LVL2:
  75              	.L1:
  76              	.LBE61:
  48:src/syscall_c.cpp ****     {
  49:src/syscall_c.cpp ****         uint64 sys_callID;
  50:src/syscall_c.cpp ****         __asm__ volatile("mv %0, a0" : "=r"(sys_callID));
  51:src/syscall_c.cpp ****         if (sys_callID == MEM_ALLOC)
  52:src/syscall_c.cpp ****         {
  53:src/syscall_c.cpp ****             uint64 size = a1;
  54:src/syscall_c.cpp **** 
  55:src/syscall_c.cpp ****             uint64 sepc;
  56:src/syscall_c.cpp ****             __asm__ volatile("csrr %0, sepc" : "=r"(sepc));
  57:src/syscall_c.cpp ****             sepc += 4;
  58:src/syscall_c.cpp ****             __asm__ volatile("csrw sepc, %0" : : "r"(sepc));
  59:src/syscall_c.cpp **** 
  60:src/syscall_c.cpp ****             void* ptr = MemoryAllocator::__get_instance()->__mem_alloc(size);
  61:src/syscall_c.cpp ****             (void)ptr;    // to remove warning "unused variable ptr"
  62:src/syscall_c.cpp ****             __asm__ volatile("sd a0, 10 * 8(fp)");  // this is good because compiler sets fp to beg
  63:src/syscall_c.cpp ****         }
  64:src/syscall_c.cpp ****         else if (sys_callID == MEM_FREE)
  65:src/syscall_c.cpp ****         {
  66:src/syscall_c.cpp ****             void* ptr = (void*)a1;
  67:src/syscall_c.cpp **** 
  68:src/syscall_c.cpp ****             setSEPC();
  69:src/syscall_c.cpp **** 
  70:src/syscall_c.cpp ****             int res = MemoryAllocator::__get_instance()->__mem_free(ptr);
  71:src/syscall_c.cpp ****             (void)res;
  72:src/syscall_c.cpp ****             __asm__ volatile("sd a0, 10 * 8(fp)");
  73:src/syscall_c.cpp ****         }
  74:src/syscall_c.cpp ****         else if (sys_callID == THREAD_CREATE)
  75:src/syscall_c.cpp ****         {
  76:src/syscall_c.cpp ****             thread_t* handle = (thread_t*)a1;
  77:src/syscall_c.cpp ****             _thread::Body routine = (_thread::Body)a2;
  78:src/syscall_c.cpp ****             void* arg = (void*)a3;
  79:src/syscall_c.cpp **** 
  80:src/syscall_c.cpp ****             setSEPC();
  81:src/syscall_c.cpp **** 
  82:src/syscall_c.cpp ****             *handle = _thread::thread_create((_thread::Body)routine, arg, true, false);
  83:src/syscall_c.cpp ****             int res = 0;
  84:src/syscall_c.cpp ****             (void)res;
  85:src/syscall_c.cpp ****             if (!(*handle))
  86:src/syscall_c.cpp ****                 res = -1;
  87:src/syscall_c.cpp **** 
  88:src/syscall_c.cpp ****             __asm__ volatile("mv a0, %0": : "r"(res));
  89:src/syscall_c.cpp ****             __asm__ volatile("sd a0, 10 * 8(fp)");
  90:src/syscall_c.cpp ****         }
  91:src/syscall_c.cpp ****         else if (sys_callID == THREAD_DISPATCH)
  92:src/syscall_c.cpp ****         {
  93:src/syscall_c.cpp ****             setSEPC();
  94:src/syscall_c.cpp **** 
  95:src/syscall_c.cpp ****             _thread::dispatch();
  96:src/syscall_c.cpp ****         }
GAS LISTING /tmp/ccpYVhxp.s 			page 4


  97:src/syscall_c.cpp ****         else if (sys_callID == THREAD_JOIN)
  98:src/syscall_c.cpp ****         {
  99:src/syscall_c.cpp ****             setSEPC();
 100:src/syscall_c.cpp **** 
 101:src/syscall_c.cpp ****             thread_t thread = (thread_t)a1;
 102:src/syscall_c.cpp ****             _thread::thread_join(thread);
 103:src/syscall_c.cpp ****         }
 104:src/syscall_c.cpp ****         else if (sys_callID == THREAD_EXIT)
 105:src/syscall_c.cpp ****         {
 106:src/syscall_c.cpp ****             setSEPC();
 107:src/syscall_c.cpp **** 
 108:src/syscall_c.cpp ****             int res = _thread::thread_exit();
 109:src/syscall_c.cpp ****             (void)res;
 110:src/syscall_c.cpp ****             __asm__ volatile("sd a0, 10 * 8(fp)");
 111:src/syscall_c.cpp ****         }
 112:src/syscall_c.cpp ****         else if (sys_callID == SEM_OPEN)
 113:src/syscall_c.cpp ****         {
 114:src/syscall_c.cpp ****             setSEPC();
 115:src/syscall_c.cpp **** 
 116:src/syscall_c.cpp ****             sem_t* semaphore = (sem_t*)a1;
 117:src/syscall_c.cpp ****             uint64 init = a2;
 118:src/syscall_c.cpp ****             *semaphore = _sem::semaphore_create(init);
 119:src/syscall_c.cpp ****             int res = 0;
 120:src/syscall_c.cpp ****             (void)res;
 121:src/syscall_c.cpp ****             if (!(*semaphore))
 122:src/syscall_c.cpp ****                 res = -1;
 123:src/syscall_c.cpp ****             __asm__ volatile("mv a0, %0": : "r"(res));
 124:src/syscall_c.cpp ****             __asm__ volatile("sd a0, 10 * 8(fp)");
 125:src/syscall_c.cpp ****         }
 126:src/syscall_c.cpp ****         else if (sys_callID == SEM_CLOSE)
 127:src/syscall_c.cpp ****         {
 128:src/syscall_c.cpp ****             setSEPC();
 129:src/syscall_c.cpp **** 
 130:src/syscall_c.cpp ****             sem_t semaphore = (sem_t)a1;
 131:src/syscall_c.cpp ****             int res = _sem::close(semaphore, _thread::SEMCLOSED);
 132:src/syscall_c.cpp ****             (void)res;
 133:src/syscall_c.cpp ****             __asm__ volatile("sd a0, 10 * 8(fp)");
 134:src/syscall_c.cpp ****         }
 135:src/syscall_c.cpp ****         else if (sys_callID == SEM_WAIT)
 136:src/syscall_c.cpp ****         {
 137:src/syscall_c.cpp ****             setSEPC();
 138:src/syscall_c.cpp **** 
 139:src/syscall_c.cpp ****             sem_t semaphore = (sem_t)a1;
 140:src/syscall_c.cpp ****             int res = _sem::wait(semaphore);
 141:src/syscall_c.cpp ****             (void)res;
 142:src/syscall_c.cpp ****             __asm__ volatile("sd a0, 10 * 8(fp)");
 143:src/syscall_c.cpp ****         }
 144:src/syscall_c.cpp ****         else if (sys_callID == SEM_SIGNAL)
 145:src/syscall_c.cpp ****         {
 146:src/syscall_c.cpp ****             setSEPC();
 147:src/syscall_c.cpp **** 
 148:src/syscall_c.cpp ****             sem_t semaphore = (sem_t)a1;
 149:src/syscall_c.cpp ****             int res = _sem::signal(semaphore);
 150:src/syscall_c.cpp ****             (void)res;
 151:src/syscall_c.cpp ****             __asm__ volatile("sd a0, 10 * 8(fp)");
 152:src/syscall_c.cpp ****         }
 153:src/syscall_c.cpp ****         else if (sys_callID == SLEEP)
GAS LISTING /tmp/ccpYVhxp.s 			page 5


 154:src/syscall_c.cpp ****         {
 155:src/syscall_c.cpp ****             setSEPC();
 156:src/syscall_c.cpp **** 
 157:src/syscall_c.cpp ****             time_t t = (time_t)a1;
 158:src/syscall_c.cpp ****             int res = _thread::thread_sleep(t);
 159:src/syscall_c.cpp ****             (void)res;
 160:src/syscall_c.cpp ****             __asm__ volatile("sd a0, 10 * 8(fp)");
 161:src/syscall_c.cpp ****         }
 162:src/syscall_c.cpp ****         else if (sys_callID == GETC)
 163:src/syscall_c.cpp ****         {
 164:src/syscall_c.cpp ****             setSEPC();
 165:src/syscall_c.cpp **** 
 166:src/syscall_c.cpp ****             char c = _buffer::consume(_buffer::getcBuffer, true);
 167:src/syscall_c.cpp ****             (void)c;
 168:src/syscall_c.cpp ****             __asm__ volatile("sd a0, 10 * 8(fp)");
 169:src/syscall_c.cpp ****         }
 170:src/syscall_c.cpp ****         else if (sys_callID == PUTC)
 171:src/syscall_c.cpp ****         {
 172:src/syscall_c.cpp ****             setSEPC();
 173:src/syscall_c.cpp **** 
 174:src/syscall_c.cpp ****             char c = (char)a1;
 175:src/syscall_c.cpp ****             _buffer::produce(_buffer::putcBuffer, c, true);
 176:src/syscall_c.cpp ****         }
 177:src/syscall_c.cpp ****         else if (sys_callID == DISABLE_INTERRUPT)
 178:src/syscall_c.cpp ****         {
 179:src/syscall_c.cpp ****             setSEPC();
 180:src/syscall_c.cpp **** 
 181:src/syscall_c.cpp ****             uint64 volatile sstatus;
 182:src/syscall_c.cpp ****             __asm__ volatile("csrr %0, sstatus" : "=r"(sstatus));
 183:src/syscall_c.cpp ****             sstatus &= ~(1ULL << 5);
 184:src/syscall_c.cpp ****             __asm__ volatile("csrw sstatus, %0" : : "r"(sstatus));
 185:src/syscall_c.cpp ****         }
 186:src/syscall_c.cpp ****         else if (sys_callID == ENABLE_INTERRUPT)
 187:src/syscall_c.cpp ****         {
 188:src/syscall_c.cpp ****             setSEPC();
 189:src/syscall_c.cpp **** 
 190:src/syscall_c.cpp ****             uint64 volatile sstatus;
 191:src/syscall_c.cpp ****             __asm__ volatile("csrr %0, sstatus" : "=r"(sstatus));
 192:src/syscall_c.cpp ****             sstatus |= (1ULL << 5);
 193:src/syscall_c.cpp ****             __asm__ volatile("csrw sstatus, %0" : : "r"(sstatus));
 194:src/syscall_c.cpp ****         }
 195:src/syscall_c.cpp ****     }
 196:src/syscall_c.cpp **** }
  77              		.loc 1 196 1
  78 0044 83308104 		ld	ra,72(sp)
  79              		.cfi_remember_state
  80              		.cfi_restore 1
  81 0048 03340104 		ld	s0,64(sp)
  82              		.cfi_restore 8
  83              		.cfi_def_cfa 2, 80
  84 004c 83348103 		ld	s1,56(sp)
  85              		.cfi_restore 9
  86 0050 13010105 		addi	sp,sp,80
  87              		.cfi_def_cfa_offset 0
  88 0054 67800000 		jr	ra
  89              	.LVL3:
  90              	.L22:
GAS LISTING /tmp/ccpYVhxp.s 			page 6


  91              		.cfi_restore_state
  92              	.LBB256:
  93              	.LBB62:
  49:src/syscall_c.cpp ****         __asm__ volatile("mv %0, a0" : "=r"(sys_callID));
  94              		.loc 1 49 9 is_stmt 1
  50:src/syscall_c.cpp ****         if (sys_callID == MEM_ALLOC)
  95              		.loc 1 50 9
  50:src/syscall_c.cpp ****         if (sys_callID == MEM_ALLOC)
  96              		.loc 1 50 57 is_stmt 0
  97              	#APP
  98              	# 50 "src/syscall_c.cpp" 1
  99              		mv a5, a0
 100              	# 0 "" 2
 101              	.LVL4:
  51:src/syscall_c.cpp ****         {
 102              		.loc 1 51 9 is_stmt 1
 103              	#NO_APP
 104              	.LBB63:
 105 005c 6380E70A 		beq	a5,a4,.L23
 106              	.LBE63:
 107              	.LBE62:
 108              	.LBE256:
  64:src/syscall_c.cpp ****         {
 109              		.loc 1 64 14
 110              	.LBB257:
 111              	.LBB241:
 112              	.LBB226:
 113              	.LBB64:
 114 0060 13072000 		li	a4,2
 115 0064 6382E70C 		beq	a5,a4,.L24
 116              	.LBE64:
 117              	.LBE226:
 118              	.LBE241:
 119              	.LBE257:
  74:src/syscall_c.cpp ****         {
 120              		.loc 1 74 14
 121              	.LBB258:
 122              	.LBB242:
 123              	.LBB227:
 124              	.LBB211:
 125              	.LBB65:
 126 0068 13071001 		li	a4,17
 127 006c 6384E70E 		beq	a5,a4,.L25
 128              	.LBE65:
 129              	.LBE211:
 130              	.LBE227:
 131              	.LBE242:
 132              	.LBE258:
  91:src/syscall_c.cpp ****         {
 133              		.loc 1 91 14
 134              	.LBB259:
 135              	.LBB243:
 136              	.LBB228:
 137              	.LBB212:
 138              	.LBB195:
 139              	.LBB66:
 140 0070 13073001 		li	a4,19
GAS LISTING /tmp/ccpYVhxp.s 			page 7


 141 0074 6384E712 		beq	a5,a4,.L26
 142              	.LBE66:
 143              	.LBE195:
 144              	.LBE212:
 145              	.LBE228:
 146              	.LBE243:
 147              	.LBE259:
  97:src/syscall_c.cpp ****         {
 148              		.loc 1 97 14
 149              	.LBB260:
 150              	.LBB244:
 151              	.LBB229:
 152              	.LBB213:
 153              	.LBB196:
 154              	.LBB179:
 155              	.LBB67:
 156 0078 13074001 		li	a4,20
 157 007c 638CE712 		beq	a5,a4,.L27
 158              	.LBE67:
 159              	.LBE179:
 160              	.LBE196:
 161              	.LBE213:
 162              	.LBE229:
 163              	.LBE244:
 164              	.LBE260:
 104:src/syscall_c.cpp ****         {
 165              		.loc 1 104 14
 166              	.LBB261:
 167              	.LBB245:
 168              	.LBB230:
 169              	.LBB214:
 170              	.LBB197:
 171              	.LBB180:
 172              	.LBB166:
 173              	.LBB68:
 174 0080 13072001 		li	a4,18
 175 0084 6386E714 		beq	a5,a4,.L28
 176              	.LBE68:
 177              	.LBE166:
 178              	.LBE180:
 179              	.LBE197:
 180              	.LBE214:
 181              	.LBE230:
 182              	.LBE245:
 183              	.LBE261:
 112:src/syscall_c.cpp ****         {
 184              		.loc 1 112 14
 185              	.LBB262:
 186              	.LBB246:
 187              	.LBB231:
 188              	.LBB215:
 189              	.LBB198:
 190              	.LBB181:
 191              	.LBB167:
 192              	.LBB153:
 193              	.LBB69:
 194 0088 13071002 		li	a4,33
GAS LISTING /tmp/ccpYVhxp.s 			page 8


 195 008c 6380E716 		beq	a5,a4,.L29
 196              	.LBE69:
 197              	.LBE153:
 198              	.LBE167:
 199              	.LBE181:
 200              	.LBE198:
 201              	.LBE215:
 202              	.LBE231:
 203              	.LBE246:
 204              	.LBE262:
 126:src/syscall_c.cpp ****         {
 205              		.loc 1 126 14
 206              	.LBB263:
 207              	.LBB247:
 208              	.LBB232:
 209              	.LBB216:
 210              	.LBB199:
 211              	.LBB182:
 212              	.LBB168:
 213              	.LBB154:
 214              	.LBB141:
 215              	.LBB70:
 216 0090 13072002 		li	a4,34
 217 0094 638CE718 		beq	a5,a4,.L30
 218              	.LBE70:
 219              	.LBE141:
 220              	.LBE154:
 221              	.LBE168:
 222              	.LBE182:
 223              	.LBE199:
 224              	.LBE216:
 225              	.LBE232:
 226              	.LBE247:
 227              	.LBE263:
 135:src/syscall_c.cpp ****         {
 228              		.loc 1 135 14
 229              	.LBB264:
 230              	.LBB248:
 231              	.LBB233:
 232              	.LBB217:
 233              	.LBB200:
 234              	.LBB183:
 235              	.LBB169:
 236              	.LBB155:
 237              	.LBB142:
 238              	.LBB129:
 239              	.LBB71:
 240 0098 13073002 		li	a4,35
 241 009c 638AE71A 		beq	a5,a4,.L31
 242              	.LBE71:
 243              	.LBE129:
 244              	.LBE142:
 245              	.LBE155:
 246              	.LBE169:
 247              	.LBE183:
 248              	.LBE200:
 249              	.LBE217:
GAS LISTING /tmp/ccpYVhxp.s 			page 9


 250              	.LBE233:
 251              	.LBE248:
 252              	.LBE264:
 144:src/syscall_c.cpp ****         {
 253              		.loc 1 144 14
 254              	.LBB265:
 255              	.LBB249:
 256              	.LBB234:
 257              	.LBB218:
 258              	.LBB201:
 259              	.LBB184:
 260              	.LBB170:
 261              	.LBB156:
 262              	.LBB143:
 263              	.LBB130:
 264              	.LBB119:
 265              	.LBB72:
 266 00a0 13074002 		li	a4,36
 267 00a4 6386E71C 		beq	a5,a4,.L32
 268              	.LBE72:
 269              	.LBE119:
 270              	.LBE130:
 271              	.LBE143:
 272              	.LBE156:
 273              	.LBE170:
 274              	.LBE184:
 275              	.LBE201:
 276              	.LBE218:
 277              	.LBE234:
 278              	.LBE249:
 279              	.LBE265:
 153:src/syscall_c.cpp ****         {
 280              		.loc 1 153 14
 281              	.LBB266:
 282              	.LBB250:
 283              	.LBB235:
 284              	.LBB219:
 285              	.LBB202:
 286              	.LBB185:
 287              	.LBB171:
 288              	.LBB157:
 289              	.LBB144:
 290              	.LBB131:
 291              	.LBB120:
 292              	.LBB110:
 293              	.LBB73:
 294 00a8 13071003 		li	a4,49
 295 00ac 6382E71E 		beq	a5,a4,.L33
 296              	.LBE73:
 297              	.LBE110:
 298              	.LBE120:
 299              	.LBE131:
 300              	.LBE144:
 301              	.LBE157:
 302              	.LBE171:
 303              	.LBE185:
 304              	.LBE202:
GAS LISTING /tmp/ccpYVhxp.s 			page 10


 305              	.LBE219:
 306              	.LBE235:
 307              	.LBE250:
 308              	.LBE266:
 162:src/syscall_c.cpp ****         {
 309              		.loc 1 162 14
 310              	.LBB267:
 311              	.LBB251:
 312              	.LBB236:
 313              	.LBB220:
 314              	.LBB203:
 315              	.LBB186:
 316              	.LBB172:
 317              	.LBB158:
 318              	.LBB145:
 319              	.LBB132:
 320              	.LBB121:
 321              	.LBB111:
 322              	.LBB102:
 323              	.LBB74:
 324 00b0 13071004 		li	a4,65
 325 00b4 638EE71E 		beq	a5,a4,.L34
 326              	.LBE74:
 327              	.LBE102:
 328              	.LBE111:
 329              	.LBE121:
 330              	.LBE132:
 331              	.LBE145:
 332              	.LBE158:
 333              	.LBE172:
 334              	.LBE186:
 335              	.LBE203:
 336              	.LBE220:
 337              	.LBE236:
 338              	.LBE251:
 339              	.LBE267:
 170:src/syscall_c.cpp ****         {
 340              		.loc 1 170 14
 341              	.LBB268:
 342              	.LBB252:
 343              	.LBB237:
 344              	.LBB221:
 345              	.LBB204:
 346              	.LBB187:
 347              	.LBB173:
 348              	.LBB159:
 349              	.LBB146:
 350              	.LBB133:
 351              	.LBB122:
 352              	.LBB112:
 353              	.LBB103:
 354              	.LBB95:
 355              	.LBB75:
 356 00b8 13072004 		li	a4,66
 357 00bc 6380E722 		beq	a5,a4,.L35
 358              	.LBE75:
 359              	.LBE95:
GAS LISTING /tmp/ccpYVhxp.s 			page 11


 360              	.LBE103:
 361              	.LBE112:
 362              	.LBE122:
 363              	.LBE133:
 364              	.LBE146:
 365              	.LBE159:
 366              	.LBE173:
 367              	.LBE187:
 368              	.LBE204:
 369              	.LBE221:
 370              	.LBE237:
 371              	.LBE252:
 372              	.LBE268:
 177:src/syscall_c.cpp ****         {
 373              		.loc 1 177 14
 374              	.LBB269:
 375              	.LBB253:
 376              	.LBB238:
 377              	.LBB222:
 378              	.LBB205:
 379              	.LBB188:
 380              	.LBB174:
 381              	.LBB160:
 382              	.LBB147:
 383              	.LBB134:
 384              	.LBB123:
 385              	.LBB113:
 386              	.LBB104:
 387              	.LBB96:
 388              	.LBB89:
 389              	.LBB76:
 390 00c0 13070006 		li	a4,96
 391 00c4 6384E724 		beq	a5,a4,.L36
 392              	.LBE76:
 393              	.LBE89:
 394              	.LBE96:
 395              	.LBE104:
 396              	.LBE113:
 397              	.LBE123:
 398              	.LBE134:
 399              	.LBE147:
 400              	.LBE160:
 401              	.LBE174:
 402              	.LBE188:
 403              	.LBE205:
 404              	.LBE222:
 405              	.LBE238:
 406              	.LBE253:
 407              	.LBE269:
 186:src/syscall_c.cpp ****         {
 408              		.loc 1 186 14
 409              	.LBB270:
 410              	.LBB254:
 411              	.LBB239:
 412              	.LBB223:
 413              	.LBB206:
 414              	.LBB189:
GAS LISTING /tmp/ccpYVhxp.s 			page 12


 415              	.LBB175:
 416              	.LBB161:
 417              	.LBB148:
 418              	.LBB135:
 419              	.LBB124:
 420              	.LBB114:
 421              	.LBB105:
 422              	.LBB97:
 423              	.LBB90:
 424              	.LBB84:
 425              	.LBB77:
 426 00c8 13071006 		li	a4,97
 427 00cc E39CE7F6 		bne	a5,a4,.L1
 428              	.LBB78:
 188:src/syscall_c.cpp **** 
 429              		.loc 1 188 13
 430              	.LBB79:
 431              	.LBB80:
  29:src/syscall_c.cpp ****     __asm__ volatile("csrr %0, sepc" : "=r"(sepc));
 432              		.loc 1 29 5
  30:src/syscall_c.cpp ****     sepc += 4;
 433              		.loc 1 30 5
  30:src/syscall_c.cpp ****     sepc += 4;
 434              		.loc 1 30 51 is_stmt 0
 435              	#APP
 436              	# 30 "src/syscall_c.cpp" 1
 437              		csrr a5, sepc
 438              	# 0 "" 2
 439              	.LVL5:
  31:src/syscall_c.cpp ****     __asm__ volatile("csrw sepc, %0" : : "r"(sepc));
 440              		.loc 1 31 5 is_stmt 1
  31:src/syscall_c.cpp ****     __asm__ volatile("csrw sepc, %0" : : "r"(sepc));
 441              		.loc 1 31 10 is_stmt 0
 442              	#NO_APP
 443 00d4 93874700 		addi	a5,a5,4
 444              	.LVL6:
  32:src/syscall_c.cpp **** }
 445              		.loc 1 32 5 is_stmt 1
  32:src/syscall_c.cpp **** }
 446              		.loc 1 32 52 is_stmt 0
 447              	#APP
 448              	# 32 "src/syscall_c.cpp" 1
 449              		csrw sepc, a5
 450              	# 0 "" 2
 451              	.LVL7:
 452              	#NO_APP
 453              	.LBE80:
 454              	.LBE79:
 190:src/syscall_c.cpp ****             __asm__ volatile("csrr %0, sstatus" : "=r"(sstatus));
 455              		.loc 1 190 13 is_stmt 1
 191:src/syscall_c.cpp ****             sstatus |= (1ULL << 5);
 456              		.loc 1 191 13
 191:src/syscall_c.cpp ****             sstatus |= (1ULL << 5);
 457              		.loc 1 191 65 is_stmt 0
 458              	#APP
 459              	# 191 "src/syscall_c.cpp" 1
 460              		csrr a5, sstatus
GAS LISTING /tmp/ccpYVhxp.s 			page 13


 461              	# 0 "" 2
 462              	#NO_APP
 463 00e0 233CF4FA 		sd	a5,-72(s0)
 192:src/syscall_c.cpp ****             __asm__ volatile("csrw sstatus, %0" : : "r"(sstatus));
 464              		.loc 1 192 13 is_stmt 1
 192:src/syscall_c.cpp ****             __asm__ volatile("csrw sstatus, %0" : : "r"(sstatus));
 465              		.loc 1 192 21 is_stmt 0
 466 00e4 833784FB 		ld	a5,-72(s0)
 467 00e8 93E70702 		ori	a5,a5,32
 468 00ec 233CF4FA 		sd	a5,-72(s0)
 193:src/syscall_c.cpp ****         }
 469              		.loc 1 193 13 is_stmt 1
 193:src/syscall_c.cpp ****         }
 470              		.loc 1 193 57 is_stmt 0
 471 00f0 833784FB 		ld	a5,-72(s0)
 193:src/syscall_c.cpp ****         }
 472              		.loc 1 193 66
 473              	#APP
 474              	# 193 "src/syscall_c.cpp" 1
 475              		csrw sstatus, a5
 476              	# 0 "" 2
 477              	#NO_APP
 478              	.LBE78:
 479              	.LBE77:
 480              	.LBE84:
 481              	.LBE90:
 482              	.LBE97:
 483              	.LBE105:
 484              	.LBE114:
 485              	.LBE124:
 486              	.LBE135:
 487              	.LBE148:
 488              	.LBE161:
 489              	.LBE175:
 490              	.LBE189:
 491              	.LBE206:
 492              	.LBE223:
 493              	.LBE239:
 494              	.LBE254:
 495              	.LBE270:
 496              		.loc 1 196 1
 497 00f8 6FF0DFF4 		j	.L1
 498              	.LVL8:
 499              	.L23:
 500              	.LBB271:
 501              	.LBB255:
 502              	.LBB240:
 503              	.LBB224:
  53:src/syscall_c.cpp **** 
 504              		.loc 1 53 13 is_stmt 1
  53:src/syscall_c.cpp **** 
 505              		.loc 1 53 27 is_stmt 0
 506 00fc 833404FD 		ld	s1,-48(s0)
 507              	.LVL9:
  55:src/syscall_c.cpp ****             __asm__ volatile("csrr %0, sepc" : "=r"(sepc));
 508              		.loc 1 55 13 is_stmt 1
  56:src/syscall_c.cpp ****             sepc += 4;
GAS LISTING /tmp/ccpYVhxp.s 			page 14


 509              		.loc 1 56 13
  56:src/syscall_c.cpp ****             sepc += 4;
 510              		.loc 1 56 59 is_stmt 0
 511              	#APP
 512              	# 56 "src/syscall_c.cpp" 1
 513              		csrr a5, sepc
 514              	# 0 "" 2
 515              	.LVL10:
  57:src/syscall_c.cpp ****             __asm__ volatile("csrw sepc, %0" : : "r"(sepc));
 516              		.loc 1 57 13 is_stmt 1
  57:src/syscall_c.cpp ****             __asm__ volatile("csrw sepc, %0" : : "r"(sepc));
 517              		.loc 1 57 18 is_stmt 0
 518              	#NO_APP
 519 0104 93874700 		addi	a5,a5,4
 520              	.LVL11:
  58:src/syscall_c.cpp **** 
 521              		.loc 1 58 13 is_stmt 1
  58:src/syscall_c.cpp **** 
 522              		.loc 1 58 60 is_stmt 0
 523              	#APP
 524              	# 58 "src/syscall_c.cpp" 1
  60:src/syscall_c.cpp ****             (void)ptr;    // to remove warning "unused variable ptr"
 525              		csrw sepc, a5
 526              	# 0 "" 2
 527              		.loc 1 60 13 is_stmt 1
  60:src/syscall_c.cpp ****             (void)ptr;    // to remove warning "unused variable ptr"
 528              		.loc 1 60 71 is_stmt 0
 529              	#NO_APP
 530 010c 97000000 		call	_ZN15MemoryAllocator14__get_instanceEv@plt
 530      E7800000 
 531              	.LVL12:
 532 0114 93850400 		mv	a1,s1
 533 0118 97000000 		call	_ZN15MemoryAllocator11__mem_allocEm@plt
 533      E7800000 
 534              	.LVL13:
  61:src/syscall_c.cpp ****             __asm__ volatile("sd a0, 10 * 8(fp)");  // this is good because compiler sets fp to beg
 535              		.loc 1 61 13 is_stmt 1
  62:src/syscall_c.cpp ****         }
 536              		.loc 1 62 13
  62:src/syscall_c.cpp ****         }
 537              		.loc 1 62 50 is_stmt 0
 538              	#APP
 539              	# 62 "src/syscall_c.cpp" 1
 540              		sd a0, 10 * 8(fp)
 541              	# 0 "" 2
 542              	#NO_APP
 543              	.LBE224:
 544 0124 6FF01FF2 		j	.L1
 545              	.LVL14:
 546              	.L24:
 547              	.LBB225:
 548              	.LBB207:
  66:src/syscall_c.cpp **** 
 549              		.loc 1 66 13 is_stmt 1
  66:src/syscall_c.cpp **** 
 550              		.loc 1 66 32 is_stmt 0
 551 0128 833404FD 		ld	s1,-48(s0)
GAS LISTING /tmp/ccpYVhxp.s 			page 15


 552              	.LVL15:
  68:src/syscall_c.cpp **** 
 553              		.loc 1 68 13 is_stmt 1
 554              	.LBB208:
 555              	.LBB209:
  29:src/syscall_c.cpp ****     __asm__ volatile("csrr %0, sepc" : "=r"(sepc));
 556              		.loc 1 29 5
  30:src/syscall_c.cpp ****     sepc += 4;
 557              		.loc 1 30 5
  30:src/syscall_c.cpp ****     sepc += 4;
 558              		.loc 1 30 51 is_stmt 0
 559              	#APP
 560              	# 30 "src/syscall_c.cpp" 1
 561              		csrr a5, sepc
 562              	# 0 "" 2
 563              	.LVL16:
  31:src/syscall_c.cpp ****     __asm__ volatile("csrw sepc, %0" : : "r"(sepc));
 564              		.loc 1 31 5 is_stmt 1
  31:src/syscall_c.cpp ****     __asm__ volatile("csrw sepc, %0" : : "r"(sepc));
 565              		.loc 1 31 10 is_stmt 0
 566              	#NO_APP
 567 0130 93874700 		addi	a5,a5,4
 568              	.LVL17:
  32:src/syscall_c.cpp **** }
 569              		.loc 1 32 5 is_stmt 1
  32:src/syscall_c.cpp **** }
 570              		.loc 1 32 52 is_stmt 0
 571              	#APP
 572              	# 32 "src/syscall_c.cpp" 1
 573              		csrw sepc, a5
 574              	# 0 "" 2
 575              	.LVL18:
 576              	#NO_APP
 577              	.LBE209:
 578              	.LBE208:
  70:src/syscall_c.cpp ****             (void)res;
 579              		.loc 1 70 13 is_stmt 1
  70:src/syscall_c.cpp ****             (void)res;
 580              		.loc 1 70 68 is_stmt 0
 581 0138 97000000 		call	_ZN15MemoryAllocator14__get_instanceEv@plt
 581      E7800000 
 582              	.LVL19:
 583 0140 93850400 		mv	a1,s1
 584 0144 97000000 		call	_ZN15MemoryAllocator10__mem_freeEPv@plt
 584      E7800000 
 585              	.LVL20:
  71:src/syscall_c.cpp ****             __asm__ volatile("sd a0, 10 * 8(fp)");
 586              		.loc 1 71 13 is_stmt 1
  72:src/syscall_c.cpp ****         }
 587              		.loc 1 72 13
  72:src/syscall_c.cpp ****         }
 588              		.loc 1 72 50 is_stmt 0
 589              	#APP
 590              	# 72 "src/syscall_c.cpp" 1
 591              		sd a0, 10 * 8(fp)
 592              	# 0 "" 2
 593              	#NO_APP
GAS LISTING /tmp/ccpYVhxp.s 			page 16


 594              	.LBE207:
 595 0150 6FF05FEF 		j	.L1
 596              	.LVL21:
 597              	.L25:
 598              	.LBB210:
 599              	.LBB190:
  76:src/syscall_c.cpp ****             _thread::Body routine = (_thread::Body)a2;
 600              		.loc 1 76 13 is_stmt 1
  76:src/syscall_c.cpp ****             _thread::Body routine = (_thread::Body)a2;
 601              		.loc 1 76 43 is_stmt 0
 602 0154 833404FD 		ld	s1,-48(s0)
 603              	.LVL22:
  77:src/syscall_c.cpp ****             void* arg = (void*)a3;
 604              		.loc 1 77 13 is_stmt 1
  77:src/syscall_c.cpp ****             void* arg = (void*)a3;
 605              		.loc 1 77 52 is_stmt 0
 606 0158 033584FC 		ld	a0,-56(s0)
 607              	.LVL23:
  78:src/syscall_c.cpp **** 
 608              		.loc 1 78 13 is_stmt 1
  78:src/syscall_c.cpp **** 
 609              		.loc 1 78 32 is_stmt 0
 610 015c 833504FC 		ld	a1,-64(s0)
 611              	.LVL24:
  80:src/syscall_c.cpp **** 
 612              		.loc 1 80 13 is_stmt 1
 613              	.LBB191:
 614              	.LBB192:
  29:src/syscall_c.cpp ****     __asm__ volatile("csrr %0, sepc" : "=r"(sepc));
 615              		.loc 1 29 5
  30:src/syscall_c.cpp ****     sepc += 4;
 616              		.loc 1 30 5
  30:src/syscall_c.cpp ****     sepc += 4;
 617              		.loc 1 30 51 is_stmt 0
 618              	#APP
 619              	# 30 "src/syscall_c.cpp" 1
 620              		csrr a5, sepc
 621              	# 0 "" 2
 622              	.LVL25:
  31:src/syscall_c.cpp ****     __asm__ volatile("csrw sepc, %0" : : "r"(sepc));
 623              		.loc 1 31 5 is_stmt 1
  31:src/syscall_c.cpp ****     __asm__ volatile("csrw sepc, %0" : : "r"(sepc));
 624              		.loc 1 31 10 is_stmt 0
 625              	#NO_APP
 626 0164 93874700 		addi	a5,a5,4
 627              	.LVL26:
  32:src/syscall_c.cpp **** }
 628              		.loc 1 32 5 is_stmt 1
  32:src/syscall_c.cpp **** }
 629              		.loc 1 32 52 is_stmt 0
 630              	#APP
 631              	# 32 "src/syscall_c.cpp" 1
 632              		csrw sepc, a5
 633              	# 0 "" 2
 634              	.LVL27:
 635              	#NO_APP
 636              	.LBE192:
GAS LISTING /tmp/ccpYVhxp.s 			page 17


 637              	.LBE191:
  82:src/syscall_c.cpp ****             int res = 0;
 638              		.loc 1 82 13 is_stmt 1
  82:src/syscall_c.cpp ****             int res = 0;
 639              		.loc 1 82 45 is_stmt 0
 640 016c 93060000 		li	a3,0
 641 0170 13061000 		li	a2,1
 642 0174 97000000 		call	_ZN7_thread13thread_createEPFvPvES0_bb@plt
 642      E7800000 
 643              	.LVL28:
  82:src/syscall_c.cpp ****             int res = 0;
 644              		.loc 1 82 21
 645 017c 23B0A400 		sd	a0,0(s1)
  83:src/syscall_c.cpp ****             (void)res;
 646              		.loc 1 83 13 is_stmt 1
 647              	.LVL29:
  84:src/syscall_c.cpp ****             if (!(*handle))
 648              		.loc 1 84 13
  85:src/syscall_c.cpp ****                 res = -1;
 649              		.loc 1 85 13
 650 0180 630A0500 		beqz	a0,.L19
  83:src/syscall_c.cpp ****             (void)res;
 651              		.loc 1 83 17 is_stmt 0
 652 0184 93070000 		li	a5,0
 653              	.L6:
 654              	.LVL30:
  88:src/syscall_c.cpp ****             __asm__ volatile("sd a0, 10 * 8(fp)");
 655              		.loc 1 88 13 is_stmt 1
  88:src/syscall_c.cpp ****             __asm__ volatile("sd a0, 10 * 8(fp)");
 656              		.loc 1 88 54 is_stmt 0
 657              	#APP
 658              	# 88 "src/syscall_c.cpp" 1
  89:src/syscall_c.cpp ****         }
 659              		mv a0, a5
 660              	# 0 "" 2
 661              		.loc 1 89 13 is_stmt 1
  89:src/syscall_c.cpp ****         }
 662              		.loc 1 89 50 is_stmt 0
 663              	# 89 "src/syscall_c.cpp" 1
 664              		sd a0, 10 * 8(fp)
 665              	# 0 "" 2
 666              	#NO_APP
 667              	.LBE190:
 668 0190 6FF05FEB 		j	.L1
 669              	.LVL31:
 670              	.L19:
 671              	.LBB193:
  86:src/syscall_c.cpp **** 
 672              		.loc 1 86 21
 673 0194 9307F0FF 		li	a5,-1
 674 0198 6FF01FFF 		j	.L6
 675              	.LVL32:
 676              	.L26:
 677              	.LBE193:
 678              	.LBB194:
  93:src/syscall_c.cpp **** 
 679              		.loc 1 93 13 is_stmt 1
GAS LISTING /tmp/ccpYVhxp.s 			page 18


 680              	.LBB176:
 681              	.LBB177:
  29:src/syscall_c.cpp ****     __asm__ volatile("csrr %0, sepc" : "=r"(sepc));
 682              		.loc 1 29 5
  30:src/syscall_c.cpp ****     sepc += 4;
 683              		.loc 1 30 5
  30:src/syscall_c.cpp ****     sepc += 4;
 684              		.loc 1 30 51 is_stmt 0
 685              	#APP
 686              	# 30 "src/syscall_c.cpp" 1
 687              		csrr a5, sepc
 688              	# 0 "" 2
 689              	.LVL33:
  31:src/syscall_c.cpp ****     __asm__ volatile("csrw sepc, %0" : : "r"(sepc));
 690              		.loc 1 31 5 is_stmt 1
  31:src/syscall_c.cpp ****     __asm__ volatile("csrw sepc, %0" : : "r"(sepc));
 691              		.loc 1 31 10 is_stmt 0
 692              	#NO_APP
 693 01a0 93874700 		addi	a5,a5,4
 694              	.LVL34:
  32:src/syscall_c.cpp **** }
 695              		.loc 1 32 5 is_stmt 1
  32:src/syscall_c.cpp **** }
 696              		.loc 1 32 52 is_stmt 0
 697              	#APP
 698              	# 32 "src/syscall_c.cpp" 1
 699              		csrw sepc, a5
 700              	# 0 "" 2
 701              	.LVL35:
 702              	#NO_APP
 703              	.LBE177:
 704              	.LBE176:
  95:src/syscall_c.cpp ****         }
 705              		.loc 1 95 13 is_stmt 1
  95:src/syscall_c.cpp ****         }
 706              		.loc 1 95 30 is_stmt 0
 707 01a8 97000000 		call	_ZN7_thread8dispatchEv@plt
 707      E7800000 
 708              	.LVL36:
 709 01b0 6FF05FE9 		j	.L1
 710              	.LVL37:
 711              	.L27:
 712              	.LBB178:
 713              	.LBB162:
  99:src/syscall_c.cpp **** 
 714              		.loc 1 99 13 is_stmt 1
 715              	.LBB163:
 716              	.LBB164:
  29:src/syscall_c.cpp ****     __asm__ volatile("csrr %0, sepc" : "=r"(sepc));
 717              		.loc 1 29 5
  30:src/syscall_c.cpp ****     sepc += 4;
 718              		.loc 1 30 5
  30:src/syscall_c.cpp ****     sepc += 4;
 719              		.loc 1 30 51 is_stmt 0
 720              	#APP
 721              	# 30 "src/syscall_c.cpp" 1
 722              		csrr a5, sepc
GAS LISTING /tmp/ccpYVhxp.s 			page 19


 723              	# 0 "" 2
 724              	.LVL38:
  31:src/syscall_c.cpp ****     __asm__ volatile("csrw sepc, %0" : : "r"(sepc));
 725              		.loc 1 31 5 is_stmt 1
  31:src/syscall_c.cpp ****     __asm__ volatile("csrw sepc, %0" : : "r"(sepc));
 726              		.loc 1 31 10 is_stmt 0
 727              	#NO_APP
 728 01b8 93874700 		addi	a5,a5,4
 729              	.LVL39:
  32:src/syscall_c.cpp **** }
 730              		.loc 1 32 5 is_stmt 1
  32:src/syscall_c.cpp **** }
 731              		.loc 1 32 52 is_stmt 0
 732              	#APP
 733              	# 32 "src/syscall_c.cpp" 1
 734              		csrw sepc, a5
 735              	# 0 "" 2
 736              	.LVL40:
 737              	#NO_APP
 738              	.LBE164:
 739              	.LBE163:
 101:src/syscall_c.cpp ****             _thread::thread_join(thread);
 740              		.loc 1 101 13 is_stmt 1
 101:src/syscall_c.cpp ****             _thread::thread_join(thread);
 741              		.loc 1 101 41 is_stmt 0
 742 01c0 033504FD 		ld	a0,-48(s0)
 743              	.LVL41:
 102:src/syscall_c.cpp ****         }
 744              		.loc 1 102 13 is_stmt 1
 102:src/syscall_c.cpp ****         }
 745              		.loc 1 102 33 is_stmt 0
 746 01c4 97000000 		call	_ZN7_thread11thread_joinEPS_@plt
 746      E7800000 
 747              	.LVL42:
 748              	.LBE162:
 749 01cc 6FF09FE7 		j	.L1
 750              	.LVL43:
 751              	.L28:
 752              	.LBB165:
 753              	.LBB149:
 106:src/syscall_c.cpp **** 
 754              		.loc 1 106 13 is_stmt 1
 755              	.LBB150:
 756              	.LBB151:
  29:src/syscall_c.cpp ****     __asm__ volatile("csrr %0, sepc" : "=r"(sepc));
 757              		.loc 1 29 5
  30:src/syscall_c.cpp ****     sepc += 4;
 758              		.loc 1 30 5
  30:src/syscall_c.cpp ****     sepc += 4;
 759              		.loc 1 30 51 is_stmt 0
 760              	#APP
 761              	# 30 "src/syscall_c.cpp" 1
 762              		csrr a5, sepc
 763              	# 0 "" 2
 764              	.LVL44:
  31:src/syscall_c.cpp ****     __asm__ volatile("csrw sepc, %0" : : "r"(sepc));
 765              		.loc 1 31 5 is_stmt 1
GAS LISTING /tmp/ccpYVhxp.s 			page 20


  31:src/syscall_c.cpp ****     __asm__ volatile("csrw sepc, %0" : : "r"(sepc));
 766              		.loc 1 31 10 is_stmt 0
 767              	#NO_APP
 768 01d4 93874700 		addi	a5,a5,4
 769              	.LVL45:
  32:src/syscall_c.cpp **** }
 770              		.loc 1 32 5 is_stmt 1
  32:src/syscall_c.cpp **** }
 771              		.loc 1 32 52 is_stmt 0
 772              	#APP
 773              	# 32 "src/syscall_c.cpp" 1
 774              		csrw sepc, a5
 775              	# 0 "" 2
 776              	.LVL46:
 777              	#NO_APP
 778              	.LBE151:
 779              	.LBE150:
 108:src/syscall_c.cpp ****             (void)res;
 780              		.loc 1 108 13 is_stmt 1
 108:src/syscall_c.cpp ****             (void)res;
 781              		.loc 1 108 43 is_stmt 0
 782 01dc 97000000 		call	_ZN7_thread11thread_exitEv@plt
 782      E7800000 
 783              	.LVL47:
 109:src/syscall_c.cpp ****             __asm__ volatile("sd a0, 10 * 8(fp)");
 784              		.loc 1 109 13 is_stmt 1
 110:src/syscall_c.cpp ****         }
 785              		.loc 1 110 13
 110:src/syscall_c.cpp ****         }
 786              		.loc 1 110 50 is_stmt 0
 787              	#APP
 788              	# 110 "src/syscall_c.cpp" 1
 789              		sd a0, 10 * 8(fp)
 790              	# 0 "" 2
 791              	#NO_APP
 792              	.LBE149:
 793 01e8 6FF0DFE5 		j	.L1
 794              	.LVL48:
 795              	.L29:
 796              	.LBB152:
 797              	.LBB136:
 114:src/syscall_c.cpp **** 
 798              		.loc 1 114 13 is_stmt 1
 799              	.LBB137:
 800              	.LBB138:
  29:src/syscall_c.cpp ****     __asm__ volatile("csrr %0, sepc" : "=r"(sepc));
 801              		.loc 1 29 5
  30:src/syscall_c.cpp ****     sepc += 4;
 802              		.loc 1 30 5
  30:src/syscall_c.cpp ****     sepc += 4;
 803              		.loc 1 30 51 is_stmt 0
 804              	#APP
 805              	# 30 "src/syscall_c.cpp" 1
 806              		csrr a5, sepc
 807              	# 0 "" 2
 808              	.LVL49:
  31:src/syscall_c.cpp ****     __asm__ volatile("csrw sepc, %0" : : "r"(sepc));
GAS LISTING /tmp/ccpYVhxp.s 			page 21


 809              		.loc 1 31 5 is_stmt 1
  31:src/syscall_c.cpp ****     __asm__ volatile("csrw sepc, %0" : : "r"(sepc));
 810              		.loc 1 31 10 is_stmt 0
 811              	#NO_APP
 812 01f0 93874700 		addi	a5,a5,4
 813              	.LVL50:
  32:src/syscall_c.cpp **** }
 814              		.loc 1 32 5 is_stmt 1
  32:src/syscall_c.cpp **** }
 815              		.loc 1 32 52 is_stmt 0
 816              	#APP
 817              	# 32 "src/syscall_c.cpp" 1
 818              		csrw sepc, a5
 819              	# 0 "" 2
 820              	.LVL51:
 821              	#NO_APP
 822              	.LBE138:
 823              	.LBE137:
 116:src/syscall_c.cpp ****             uint64 init = a2;
 824              		.loc 1 116 13 is_stmt 1
 116:src/syscall_c.cpp ****             uint64 init = a2;
 825              		.loc 1 116 40 is_stmt 0
 826 01f8 833404FD 		ld	s1,-48(s0)
 827              	.LVL52:
 117:src/syscall_c.cpp ****             *semaphore = _sem::semaphore_create(init);
 828              		.loc 1 117 13 is_stmt 1
 117:src/syscall_c.cpp ****             *semaphore = _sem::semaphore_create(init);
 829              		.loc 1 117 27 is_stmt 0
 830 01fc 033584FC 		ld	a0,-56(s0)
 831              	.LVL53:
 118:src/syscall_c.cpp ****             int res = 0;
 832              		.loc 1 118 13 is_stmt 1
 118:src/syscall_c.cpp ****             int res = 0;
 833              		.loc 1 118 48 is_stmt 0
 834 0200 1B050500 		sext.w	a0,a0
 835              	.LVL54:
 836 0204 97000000 		call	_ZN4_sem16semaphore_createEj@plt
 836      E7800000 
 837              	.LVL55:
 118:src/syscall_c.cpp ****             int res = 0;
 838              		.loc 1 118 24
 839 020c 23B0A400 		sd	a0,0(s1)
 119:src/syscall_c.cpp ****             (void)res;
 840              		.loc 1 119 13 is_stmt 1
 841              	.LVL56:
 120:src/syscall_c.cpp ****             if (!(*semaphore))
 842              		.loc 1 120 13
 121:src/syscall_c.cpp ****                 res = -1;
 843              		.loc 1 121 13
 844 0210 630A0500 		beqz	a0,.L20
 119:src/syscall_c.cpp ****             (void)res;
 845              		.loc 1 119 17 is_stmt 0
 846 0214 93070000 		li	a5,0
 847              	.L11:
 848              	.LVL57:
 123:src/syscall_c.cpp ****             __asm__ volatile("sd a0, 10 * 8(fp)");
 849              		.loc 1 123 13 is_stmt 1
GAS LISTING /tmp/ccpYVhxp.s 			page 22


 123:src/syscall_c.cpp ****             __asm__ volatile("sd a0, 10 * 8(fp)");
 850              		.loc 1 123 54 is_stmt 0
 851              	#APP
 852              	# 123 "src/syscall_c.cpp" 1
 124:src/syscall_c.cpp ****         }
 853              		mv a0, a5
 854              	# 0 "" 2
 855              		.loc 1 124 13 is_stmt 1
 124:src/syscall_c.cpp ****         }
 856              		.loc 1 124 50 is_stmt 0
 857              	# 124 "src/syscall_c.cpp" 1
 858              		sd a0, 10 * 8(fp)
 859              	# 0 "" 2
 860              	#NO_APP
 861              	.LBE136:
 862 0220 6FF05FE2 		j	.L1
 863              	.LVL58:
 864              	.L20:
 865              	.LBB139:
 122:src/syscall_c.cpp ****             __asm__ volatile("mv a0, %0": : "r"(res));
 866              		.loc 1 122 21
 867 0224 9307F0FF 		li	a5,-1
 868 0228 6FF01FFF 		j	.L11
 869              	.LVL59:
 870              	.L30:
 871              	.LBE139:
 872              	.LBB140:
 873              	.LBB125:
 128:src/syscall_c.cpp **** 
 874              		.loc 1 128 13 is_stmt 1
 875              	.LBB126:
 876              	.LBB127:
  29:src/syscall_c.cpp ****     __asm__ volatile("csrr %0, sepc" : "=r"(sepc));
 877              		.loc 1 29 5
  30:src/syscall_c.cpp ****     sepc += 4;
 878              		.loc 1 30 5
  30:src/syscall_c.cpp ****     sepc += 4;
 879              		.loc 1 30 51 is_stmt 0
 880              	#APP
 881              	# 30 "src/syscall_c.cpp" 1
 882              		csrr a5, sepc
 883              	# 0 "" 2
 884              	.LVL60:
  31:src/syscall_c.cpp ****     __asm__ volatile("csrw sepc, %0" : : "r"(sepc));
 885              		.loc 1 31 5 is_stmt 1
  31:src/syscall_c.cpp ****     __asm__ volatile("csrw sepc, %0" : : "r"(sepc));
 886              		.loc 1 31 10 is_stmt 0
 887              	#NO_APP
 888 0230 93874700 		addi	a5,a5,4
 889              	.LVL61:
  32:src/syscall_c.cpp **** }
 890              		.loc 1 32 5 is_stmt 1
  32:src/syscall_c.cpp **** }
 891              		.loc 1 32 52 is_stmt 0
 892              	#APP
 893              	# 32 "src/syscall_c.cpp" 1
 894              		csrw sepc, a5
GAS LISTING /tmp/ccpYVhxp.s 			page 23


 895              	# 0 "" 2
 896              	.LVL62:
 897              	#NO_APP
 898              	.LBE127:
 899              	.LBE126:
 130:src/syscall_c.cpp ****             int res = _sem::close(semaphore, _thread::SEMCLOSED);
 900              		.loc 1 130 13 is_stmt 1
 130:src/syscall_c.cpp ****             int res = _sem::close(semaphore, _thread::SEMCLOSED);
 901              		.loc 1 130 38 is_stmt 0
 902 0238 033504FD 		ld	a0,-48(s0)
 903              	.LVL63:
 131:src/syscall_c.cpp ****             (void)res;
 904              		.loc 1 131 13 is_stmt 1
 131:src/syscall_c.cpp ****             (void)res;
 905              		.loc 1 131 34 is_stmt 0
 906 023c 93051000 		li	a1,1
 907 0240 97000000 		call	_ZN4_sem5closeEPS_N7_thread14semReturnValueE@plt
 907      E7800000 
 908              	.LVL64:
 132:src/syscall_c.cpp ****             __asm__ volatile("sd a0, 10 * 8(fp)");
 909              		.loc 1 132 13 is_stmt 1
 133:src/syscall_c.cpp ****         }
 910              		.loc 1 133 13
 133:src/syscall_c.cpp ****         }
 911              		.loc 1 133 50 is_stmt 0
 912              	#APP
 913              	# 133 "src/syscall_c.cpp" 1
 914              		sd a0, 10 * 8(fp)
 915              	# 0 "" 2
 916              	#NO_APP
 917              	.LBE125:
 918 024c 6FF09FDF 		j	.L1
 919              	.LVL65:
 920              	.L31:
 921              	.LBB128:
 922              	.LBB115:
 137:src/syscall_c.cpp **** 
 923              		.loc 1 137 13 is_stmt 1
 924              	.LBB116:
 925              	.LBB117:
  29:src/syscall_c.cpp ****     __asm__ volatile("csrr %0, sepc" : "=r"(sepc));
 926              		.loc 1 29 5
  30:src/syscall_c.cpp ****     sepc += 4;
 927              		.loc 1 30 5
  30:src/syscall_c.cpp ****     sepc += 4;
 928              		.loc 1 30 51 is_stmt 0
 929              	#APP
 930              	# 30 "src/syscall_c.cpp" 1
 931              		csrr a5, sepc
 932              	# 0 "" 2
 933              	.LVL66:
  31:src/syscall_c.cpp ****     __asm__ volatile("csrw sepc, %0" : : "r"(sepc));
 934              		.loc 1 31 5 is_stmt 1
  31:src/syscall_c.cpp ****     __asm__ volatile("csrw sepc, %0" : : "r"(sepc));
 935              		.loc 1 31 10 is_stmt 0
 936              	#NO_APP
 937 0254 93874700 		addi	a5,a5,4
GAS LISTING /tmp/ccpYVhxp.s 			page 24


 938              	.LVL67:
  32:src/syscall_c.cpp **** }
 939              		.loc 1 32 5 is_stmt 1
  32:src/syscall_c.cpp **** }
 940              		.loc 1 32 52 is_stmt 0
 941              	#APP
 942              	# 32 "src/syscall_c.cpp" 1
 943              		csrw sepc, a5
 944              	# 0 "" 2
 945              	.LVL68:
 946              	#NO_APP
 947              	.LBE117:
 948              	.LBE116:
 139:src/syscall_c.cpp ****             int res = _sem::wait(semaphore);
 949              		.loc 1 139 13 is_stmt 1
 139:src/syscall_c.cpp ****             int res = _sem::wait(semaphore);
 950              		.loc 1 139 38 is_stmt 0
 951 025c 033504FD 		ld	a0,-48(s0)
 952              	.LVL69:
 140:src/syscall_c.cpp ****             (void)res;
 953              		.loc 1 140 13 is_stmt 1
 140:src/syscall_c.cpp ****             (void)res;
 954              		.loc 1 140 33 is_stmt 0
 955 0260 97000000 		call	_ZN4_sem4waitEPS_@plt
 955      E7800000 
 956              	.LVL70:
 141:src/syscall_c.cpp ****             __asm__ volatile("sd a0, 10 * 8(fp)");
 957              		.loc 1 141 13 is_stmt 1
 142:src/syscall_c.cpp ****         }
 958              		.loc 1 142 13
 142:src/syscall_c.cpp ****         }
 959              		.loc 1 142 50 is_stmt 0
 960              	#APP
 961              	# 142 "src/syscall_c.cpp" 1
 962              		sd a0, 10 * 8(fp)
 963              	# 0 "" 2
 964              	#NO_APP
 965              	.LBE115:
 966 026c 6FF09FDD 		j	.L1
 967              	.LVL71:
 968              	.L32:
 969              	.LBB118:
 970              	.LBB106:
 146:src/syscall_c.cpp **** 
 971              		.loc 1 146 13 is_stmt 1
 972              	.LBB107:
 973              	.LBB108:
  29:src/syscall_c.cpp ****     __asm__ volatile("csrr %0, sepc" : "=r"(sepc));
 974              		.loc 1 29 5
  30:src/syscall_c.cpp ****     sepc += 4;
 975              		.loc 1 30 5
  30:src/syscall_c.cpp ****     sepc += 4;
 976              		.loc 1 30 51 is_stmt 0
 977              	#APP
 978              	# 30 "src/syscall_c.cpp" 1
 979              		csrr a5, sepc
 980              	# 0 "" 2
GAS LISTING /tmp/ccpYVhxp.s 			page 25


 981              	.LVL72:
  31:src/syscall_c.cpp ****     __asm__ volatile("csrw sepc, %0" : : "r"(sepc));
 982              		.loc 1 31 5 is_stmt 1
  31:src/syscall_c.cpp ****     __asm__ volatile("csrw sepc, %0" : : "r"(sepc));
 983              		.loc 1 31 10 is_stmt 0
 984              	#NO_APP
 985 0274 93874700 		addi	a5,a5,4
 986              	.LVL73:
  32:src/syscall_c.cpp **** }
 987              		.loc 1 32 5 is_stmt 1
  32:src/syscall_c.cpp **** }
 988              		.loc 1 32 52 is_stmt 0
 989              	#APP
 990              	# 32 "src/syscall_c.cpp" 1
 991              		csrw sepc, a5
 992              	# 0 "" 2
 993              	.LVL74:
 994              	#NO_APP
 995              	.LBE108:
 996              	.LBE107:
 148:src/syscall_c.cpp ****             int res = _sem::signal(semaphore);
 997              		.loc 1 148 13 is_stmt 1
 148:src/syscall_c.cpp ****             int res = _sem::signal(semaphore);
 998              		.loc 1 148 38 is_stmt 0
 999 027c 033504FD 		ld	a0,-48(s0)
 1000              	.LVL75:
 149:src/syscall_c.cpp ****             (void)res;
 1001              		.loc 1 149 13 is_stmt 1
 149:src/syscall_c.cpp ****             (void)res;
 1002              		.loc 1 149 35 is_stmt 0
 1003 0280 97000000 		call	_ZN4_sem6signalEPS_@plt
 1003      E7800000 
 1004              	.LVL76:
 150:src/syscall_c.cpp ****             __asm__ volatile("sd a0, 10 * 8(fp)");
 1005              		.loc 1 150 13 is_stmt 1
 151:src/syscall_c.cpp ****         }
 1006              		.loc 1 151 13
 151:src/syscall_c.cpp ****         }
 1007              		.loc 1 151 50 is_stmt 0
 1008              	#APP
 1009              	# 151 "src/syscall_c.cpp" 1
 1010              		sd a0, 10 * 8(fp)
 1011              	# 0 "" 2
 1012              	#NO_APP
 1013              	.LBE106:
 1014 028c 6FF09FDB 		j	.L1
 1015              	.LVL77:
 1016              	.L33:
 1017              	.LBB109:
 1018              	.LBB98:
 155:src/syscall_c.cpp **** 
 1019              		.loc 1 155 13 is_stmt 1
 1020              	.LBB99:
 1021              	.LBB100:
  29:src/syscall_c.cpp ****     __asm__ volatile("csrr %0, sepc" : "=r"(sepc));
 1022              		.loc 1 29 5
  30:src/syscall_c.cpp ****     sepc += 4;
GAS LISTING /tmp/ccpYVhxp.s 			page 26


 1023              		.loc 1 30 5
  30:src/syscall_c.cpp ****     sepc += 4;
 1024              		.loc 1 30 51 is_stmt 0
 1025              	#APP
 1026              	# 30 "src/syscall_c.cpp" 1
 1027              		csrr a5, sepc
 1028              	# 0 "" 2
 1029              	.LVL78:
  31:src/syscall_c.cpp ****     __asm__ volatile("csrw sepc, %0" : : "r"(sepc));
 1030              		.loc 1 31 5 is_stmt 1
  31:src/syscall_c.cpp ****     __asm__ volatile("csrw sepc, %0" : : "r"(sepc));
 1031              		.loc 1 31 10 is_stmt 0
 1032              	#NO_APP
 1033 0294 93874700 		addi	a5,a5,4
 1034              	.LVL79:
  32:src/syscall_c.cpp **** }
 1035              		.loc 1 32 5 is_stmt 1
  32:src/syscall_c.cpp **** }
 1036              		.loc 1 32 52 is_stmt 0
 1037              	#APP
 1038              	# 32 "src/syscall_c.cpp" 1
 1039              		csrw sepc, a5
 1040              	# 0 "" 2
 1041              	.LVL80:
 1042              	#NO_APP
 1043              	.LBE100:
 1044              	.LBE99:
 157:src/syscall_c.cpp ****             int res = _thread::thread_sleep(t);
 1045              		.loc 1 157 13 is_stmt 1
 157:src/syscall_c.cpp ****             int res = _thread::thread_sleep(t);
 1046              		.loc 1 157 32 is_stmt 0
 1047 029c 033504FD 		ld	a0,-48(s0)
 1048              	.LVL81:
 158:src/syscall_c.cpp ****             (void)res;
 1049              		.loc 1 158 13 is_stmt 1
 158:src/syscall_c.cpp ****             (void)res;
 1050              		.loc 1 158 44 is_stmt 0
 1051 02a0 97000000 		call	_ZN7_thread12thread_sleepEm@plt
 1051      E7800000 
 1052              	.LVL82:
 159:src/syscall_c.cpp ****             __asm__ volatile("sd a0, 10 * 8(fp)");
 1053              		.loc 1 159 13 is_stmt 1
 160:src/syscall_c.cpp ****         }
 1054              		.loc 1 160 13
 160:src/syscall_c.cpp ****         }
 1055              		.loc 1 160 50 is_stmt 0
 1056              	#APP
 1057              	# 160 "src/syscall_c.cpp" 1
 1058              		sd a0, 10 * 8(fp)
 1059              	# 0 "" 2
 1060              	#NO_APP
 1061              	.LBE98:
 1062 02ac 6FF09FD9 		j	.L1
 1063              	.LVL83:
 1064              	.L34:
 1065              	.LBB101:
 1066              	.LBB91:
GAS LISTING /tmp/ccpYVhxp.s 			page 27


 164:src/syscall_c.cpp **** 
 1067              		.loc 1 164 13 is_stmt 1
 1068              	.LBB92:
 1069              	.LBB93:
  29:src/syscall_c.cpp ****     __asm__ volatile("csrr %0, sepc" : "=r"(sepc));
 1070              		.loc 1 29 5
  30:src/syscall_c.cpp ****     sepc += 4;
 1071              		.loc 1 30 5
  30:src/syscall_c.cpp ****     sepc += 4;
 1072              		.loc 1 30 51 is_stmt 0
 1073              	#APP
 1074              	# 30 "src/syscall_c.cpp" 1
 1075              		csrr a5, sepc
 1076              	# 0 "" 2
 1077              	.LVL84:
  31:src/syscall_c.cpp ****     __asm__ volatile("csrw sepc, %0" : : "r"(sepc));
 1078              		.loc 1 31 5 is_stmt 1
  31:src/syscall_c.cpp ****     __asm__ volatile("csrw sepc, %0" : : "r"(sepc));
 1079              		.loc 1 31 10 is_stmt 0
 1080              	#NO_APP
 1081 02b4 93874700 		addi	a5,a5,4
 1082              	.LVL85:
  32:src/syscall_c.cpp **** }
 1083              		.loc 1 32 5 is_stmt 1
  32:src/syscall_c.cpp **** }
 1084              		.loc 1 32 52 is_stmt 0
 1085              	#APP
 1086              	# 32 "src/syscall_c.cpp" 1
 1087              		csrw sepc, a5
 1088              	# 0 "" 2
 1089              	.LVL86:
 1090              	#NO_APP
 1091              	.LBE93:
 1092              	.LBE92:
 166:src/syscall_c.cpp ****             (void)c;
 1093              		.loc 1 166 13 is_stmt 1
 166:src/syscall_c.cpp ****             (void)c;
 1094              		.loc 1 166 38 is_stmt 0
 1095 02bc 93051000 		li	a1,1
 1096 02c0 97070000 		la	a5,_ZN7_buffer10getcBufferE
 1096      83B70700 
 1097 02c8 03B50700 		ld	a0,0(a5)
 1098 02cc 97000000 		call	_ZN7_buffer7consumeEPS_b@plt
 1098      E7800000 
 1099              	.LVL87:
 167:src/syscall_c.cpp ****             __asm__ volatile("sd a0, 10 * 8(fp)");
 1100              		.loc 1 167 13 is_stmt 1
 168:src/syscall_c.cpp ****         }
 1101              		.loc 1 168 13
 168:src/syscall_c.cpp ****         }
 1102              		.loc 1 168 50 is_stmt 0
 1103              	#APP
 1104              	# 168 "src/syscall_c.cpp" 1
 1105              		sd a0, 10 * 8(fp)
 1106              	# 0 "" 2
 1107              	#NO_APP
 1108              	.LBE91:
GAS LISTING /tmp/ccpYVhxp.s 			page 28


 1109 02d8 6FF0DFD6 		j	.L1
 1110              	.LVL88:
 1111              	.L35:
 1112              	.LBB94:
 1113              	.LBB85:
 172:src/syscall_c.cpp **** 
 1114              		.loc 1 172 13 is_stmt 1
 1115              	.LBB86:
 1116              	.LBB87:
  29:src/syscall_c.cpp ****     __asm__ volatile("csrr %0, sepc" : "=r"(sepc));
 1117              		.loc 1 29 5
  30:src/syscall_c.cpp ****     sepc += 4;
 1118              		.loc 1 30 5
  30:src/syscall_c.cpp ****     sepc += 4;
 1119              		.loc 1 30 51 is_stmt 0
 1120              	#APP
 1121              	# 30 "src/syscall_c.cpp" 1
 1122              		csrr a5, sepc
 1123              	# 0 "" 2
 1124              	.LVL89:
  31:src/syscall_c.cpp ****     __asm__ volatile("csrw sepc, %0" : : "r"(sepc));
 1125              		.loc 1 31 5 is_stmt 1
  31:src/syscall_c.cpp ****     __asm__ volatile("csrw sepc, %0" : : "r"(sepc));
 1126              		.loc 1 31 10 is_stmt 0
 1127              	#NO_APP
 1128 02e0 93874700 		addi	a5,a5,4
 1129              	.LVL90:
  32:src/syscall_c.cpp **** }
 1130              		.loc 1 32 5 is_stmt 1
  32:src/syscall_c.cpp **** }
 1131              		.loc 1 32 52 is_stmt 0
 1132              	#APP
 1133              	# 32 "src/syscall_c.cpp" 1
 1134              		csrw sepc, a5
 1135              	# 0 "" 2
 1136              	.LVL91:
 1137              	#NO_APP
 1138              	.LBE87:
 1139              	.LBE86:
 174:src/syscall_c.cpp ****             _buffer::produce(_buffer::putcBuffer, c, true);
 1140              		.loc 1 174 13 is_stmt 1
 174:src/syscall_c.cpp ****             _buffer::produce(_buffer::putcBuffer, c, true);
 1141              		.loc 1 174 28 is_stmt 0
 1142 02e8 833504FD 		ld	a1,-48(s0)
 1143              	.LVL92:
 175:src/syscall_c.cpp ****         }
 1144              		.loc 1 175 13 is_stmt 1
 175:src/syscall_c.cpp ****         }
 1145              		.loc 1 175 29 is_stmt 0
 1146 02ec 13061000 		li	a2,1
 1147 02f0 93F5F50F 		andi	a1,a1,0xff
 1148 02f4 97070000 		la	a5,_ZN7_buffer10putcBufferE
 1148      83B70700 
 1149 02fc 03B50700 		ld	a0,0(a5)
 1150 0300 97000000 		call	_ZN7_buffer7produceEPS_cb@plt
 1150      E7800000 
 1151              	.LVL93:
GAS LISTING /tmp/ccpYVhxp.s 			page 29


 1152              	.LBE85:
 1153 0308 6FF0DFD3 		j	.L1
 1154              	.LVL94:
 1155              	.L36:
 1156              	.LBB88:
 1157              	.LBB81:
 179:src/syscall_c.cpp **** 
 1158              		.loc 1 179 13 is_stmt 1
 1159              	.LBB82:
 1160              	.LBB83:
  29:src/syscall_c.cpp ****     __asm__ volatile("csrr %0, sepc" : "=r"(sepc));
 1161              		.loc 1 29 5
  30:src/syscall_c.cpp ****     sepc += 4;
 1162              		.loc 1 30 5
  30:src/syscall_c.cpp ****     sepc += 4;
 1163              		.loc 1 30 51 is_stmt 0
 1164              	#APP
 1165              	# 30 "src/syscall_c.cpp" 1
 1166              		csrr a5, sepc
 1167              	# 0 "" 2
 1168              	.LVL95:
  31:src/syscall_c.cpp ****     __asm__ volatile("csrw sepc, %0" : : "r"(sepc));
 1169              		.loc 1 31 5 is_stmt 1
  31:src/syscall_c.cpp ****     __asm__ volatile("csrw sepc, %0" : : "r"(sepc));
 1170              		.loc 1 31 10 is_stmt 0
 1171              	#NO_APP
 1172 0310 93874700 		addi	a5,a5,4
 1173              	.LVL96:
  32:src/syscall_c.cpp **** }
 1174              		.loc 1 32 5 is_stmt 1
  32:src/syscall_c.cpp **** }
 1175              		.loc 1 32 52 is_stmt 0
 1176              	#APP
 1177              	# 32 "src/syscall_c.cpp" 1
 1178              		csrw sepc, a5
 1179              	# 0 "" 2
 1180              	.LVL97:
 1181              	#NO_APP
 1182              	.LBE83:
 1183              	.LBE82:
 181:src/syscall_c.cpp ****             __asm__ volatile("csrr %0, sstatus" : "=r"(sstatus));
 1184              		.loc 1 181 13 is_stmt 1
 182:src/syscall_c.cpp ****             sstatus &= ~(1ULL << 5);
 1185              		.loc 1 182 13
 182:src/syscall_c.cpp ****             sstatus &= ~(1ULL << 5);
 1186              		.loc 1 182 65 is_stmt 0
 1187              	#APP
 1188              	# 182 "src/syscall_c.cpp" 1
 1189              		csrr a5, sstatus
 1190              	# 0 "" 2
 1191              	#NO_APP
 1192 031c 2338F4FA 		sd	a5,-80(s0)
 183:src/syscall_c.cpp ****             __asm__ volatile("csrw sstatus, %0" : : "r"(sstatus));
 1193              		.loc 1 183 13 is_stmt 1
 183:src/syscall_c.cpp ****             __asm__ volatile("csrw sstatus, %0" : : "r"(sstatus));
 1194              		.loc 1 183 21 is_stmt 0
 1195 0320 833704FB 		ld	a5,-80(s0)
GAS LISTING /tmp/ccpYVhxp.s 			page 30


 1196 0324 93F7F7FD 		andi	a5,a5,-33
 1197 0328 2338F4FA 		sd	a5,-80(s0)
 184:src/syscall_c.cpp ****         }
 1198              		.loc 1 184 13 is_stmt 1
 184:src/syscall_c.cpp ****         }
 1199              		.loc 1 184 57 is_stmt 0
 1200 032c 833704FB 		ld	a5,-80(s0)
 184:src/syscall_c.cpp ****         }
 1201              		.loc 1 184 66
 1202              	#APP
 1203              	# 184 "src/syscall_c.cpp" 1
 1204              		csrw sstatus, a5
 1205              	# 0 "" 2
 1206              	#NO_APP
 1207              	.LBE81:
 1208 0334 6FF01FD1 		j	.L1
 1209              	.LBE88:
 1210              	.LBE94:
 1211              	.LBE101:
 1212              	.LBE109:
 1213              	.LBE118:
 1214              	.LBE128:
 1215              	.LBE140:
 1216              	.LBE152:
 1217              	.LBE165:
 1218              	.LBE178:
 1219              	.LBE194:
 1220              	.LBE210:
 1221              	.LBE225:
 1222              	.LBE240:
 1223              	.LBE255:
 1224              	.LBE271:
 1225              		.cfi_endproc
 1226              	.LFE14:
 1228              		.align	2
 1229              		.globl	timer_handler
 1231              	timer_handler:
 1232              	.LFB15:
 197:src/syscall_c.cpp **** 
 198:src/syscall_c.cpp **** #ifdef __cplusplus
 199:src/syscall_c.cpp **** extern "C"
 200:src/syscall_c.cpp **** #endif
 201:src/syscall_c.cpp **** void timer_handler()
 202:src/syscall_c.cpp **** {
 1233              		.loc 1 202 1 is_stmt 1
 1234              		.cfi_startproc
 203:src/syscall_c.cpp ****     uint64 scause;
 1235              		.loc 1 203 5
 204:src/syscall_c.cpp ****     __asm__ volatile("csrr %0, scause": "=r"(scause));
 1236              		.loc 1 204 5
 1237              		.loc 1 204 54 is_stmt 0
 1238              	#APP
 1239              	# 204 "src/syscall_c.cpp" 1
 205              	    if (scause == 0x8000000000000001)
 1240              		csrr a4, scause
 1241              	# 0 "" 2
 1242              	.LVL98:
GAS LISTING /tmp/ccpYVhxp.s 			page 31


 1243              		.loc 1 205 5 is_stmt 1
 1244              	#NO_APP
 1245              	.LBB272:
 1246 033c 9307F0FF 		li	a5,-1
 1247 0340 9397F703 		slli	a5,a5,63
 1248 0344 93871700 		addi	a5,a5,1
 1249 0348 6304F700 		beq	a4,a5,.L43
 1250 034c 67800000 		ret
 1251              	.L43:
 1252              	.LBE272:
 202:src/syscall_c.cpp ****     uint64 scause;
 1253              		.loc 1 202 1 is_stmt 0
 1254 0350 130101FE 		addi	sp,sp,-32
 1255              		.cfi_def_cfa_offset 32
 1256 0354 233C1100 		sd	ra,24(sp)
 1257 0358 23388100 		sd	s0,16(sp)
 1258 035c 23349100 		sd	s1,8(sp)
 1259              		.cfi_offset 1, -8
 1260              		.cfi_offset 8, -16
 1261              		.cfi_offset 9, -24
 1262 0360 13040102 		addi	s0,sp,32
 1263              		.cfi_def_cfa 8, 0
 1264              	.LBB275:
 1265              	.LBB273:
 206:src/syscall_c.cpp ****     {
 207:src/syscall_c.cpp ****         ++_thread::timeCounter;
 1266              		.loc 1 207 9 is_stmt 1
 1267 0364 97040000 		la	s1,_ZN7_thread11timeCounterE
 1267      83B40400 
 1268 036c 83B70400 		ld	a5,0(s1)
 1269 0370 93871700 		addi	a5,a5,1
 1270 0374 23B0F400 		sd	a5,0(s1)
 208:src/syscall_c.cpp ****         ++_thread::relativeSleepTimer;
 1271              		.loc 1 208 9
 1272 0378 17070000 		la	a4,_ZN7_thread18relativeSleepTimerE
 1272      03370700 
 1273              	.LVL99:
 1274 0380 83370700 		ld	a5,0(a4)
 1275 0384 93871700 		addi	a5,a5,1
 1276 0388 2330F700 		sd	a5,0(a4)
 209:src/syscall_c.cpp ****         _thread::thread_wake();
 1277              		.loc 1 209 9
 1278              		.loc 1 209 29 is_stmt 0
 1279 038c 97000000 		call	_ZN7_thread11thread_wakeEv@plt
 1279      E7800000 
 1280              	.LVL100:
 210:src/syscall_c.cpp ****         uint64 sip;
 1281              		.loc 1 210 9 is_stmt 1
 211:src/syscall_c.cpp ****         __asm__ volatile("csrr %0, sip": "=r"(sip));
 1282              		.loc 1 211 9
 1283              		.loc 1 211 52 is_stmt 0
 1284              	#APP
 1285              	# 211 "src/syscall_c.cpp" 1
 212              	        sip &= ~(1ULL << 1);
 1286              		csrr a5, sip
 1287              	# 0 "" 2
 1288              	.LVL101:
GAS LISTING /tmp/ccpYVhxp.s 			page 32


 1289              		.loc 1 212 9 is_stmt 1
 1290              		.loc 1 212 13 is_stmt 0
 1291              	#NO_APP
 1292 0398 93F7D7FF 		andi	a5,a5,-3
 1293              	.LVL102:
 213:src/syscall_c.cpp ****         __asm__ volatile("csrw sip, %0": : "r"(sip));
 1294              		.loc 1 213 9 is_stmt 1
 1295              		.loc 1 213 53 is_stmt 0
 1296              	#APP
 1297              	# 213 "src/syscall_c.cpp" 1
 214              	        if (_thread::timeCounter >= DEFAULT_TIME_SLICE)
 1298              		csrw sip, a5
 1299              	# 0 "" 2
 1300              		.loc 1 214 9 is_stmt 1
 1301              		.loc 1 214 34 is_stmt 0
 1302              	#NO_APP
 1303 03a0 03B70400 		ld	a4,0(s1)
 1304              		.loc 1 214 9
 1305 03a4 93071000 		li	a5,1
 1306              	.LVL103:
 1307 03a8 63ECE700 		bgtu	a4,a5,.L44
 1308              	.L37:
 1309              	.LBE273:
 1310              	.LBE275:
 215:src/syscall_c.cpp ****         {
 216:src/syscall_c.cpp ****             _thread::timeCounter = 0;
 217:src/syscall_c.cpp ****             _thread::dispatch();
 218:src/syscall_c.cpp ****         }
 219:src/syscall_c.cpp ****     }
 220:src/syscall_c.cpp **** }
 1311              		.loc 1 220 1
 1312 03ac 83308101 		ld	ra,24(sp)
 1313              		.cfi_remember_state
 1314              		.cfi_restore 1
 1315 03b0 03340101 		ld	s0,16(sp)
 1316              		.cfi_restore 8
 1317              		.cfi_def_cfa 2, 32
 1318 03b4 83348100 		ld	s1,8(sp)
 1319              		.cfi_restore 9
 1320 03b8 13010102 		addi	sp,sp,32
 1321              		.cfi_def_cfa_offset 0
 1322 03bc 67800000 		jr	ra
 1323              	.L44:
 1324              		.cfi_restore_state
 1325              	.LBB276:
 1326              	.LBB274:
 216:src/syscall_c.cpp ****             _thread::dispatch();
 1327              		.loc 1 216 13 is_stmt 1
 216:src/syscall_c.cpp ****             _thread::dispatch();
 1328              		.loc 1 216 34 is_stmt 0
 1329 03c0 23B00400 		sd	zero,0(s1)
 217:src/syscall_c.cpp ****         }
 1330              		.loc 1 217 13 is_stmt 1
 217:src/syscall_c.cpp ****         }
 1331              		.loc 1 217 30 is_stmt 0
 1332 03c4 97000000 		call	_ZN7_thread8dispatchEv@plt
 1332      E7800000 
GAS LISTING /tmp/ccpYVhxp.s 			page 33


 1333              	.LVL104:
 1334              	.LBE274:
 1335              	.LBE276:
 1336              		.loc 1 220 1
 1337 03cc 6FF01FFE 		j	.L37
 1338              		.cfi_endproc
 1339              	.LFE15:
 1341              		.align	2
 1342              		.globl	console_handler
 1344              	console_handler:
 1345              	.LFB16:
 221:src/syscall_c.cpp **** 
 222:src/syscall_c.cpp **** 
 223:src/syscall_c.cpp **** #ifdef __cplusplus
 224:src/syscall_c.cpp **** extern "C"
 225:src/syscall_c.cpp **** #endif
 226:src/syscall_c.cpp **** void console_handler()
 227:src/syscall_c.cpp **** {
 1346              		.loc 1 227 1 is_stmt 1
 1347              		.cfi_startproc
 228:src/syscall_c.cpp ****     uint64 sip;
 1348              		.loc 1 228 5
 229:src/syscall_c.cpp ****     __asm__ volatile("csrr %0, sip": "=r"(sip));
 1349              		.loc 1 229 5
 1350              		.loc 1 229 48 is_stmt 0
 1351              	#APP
 1352              	# 229 "src/syscall_c.cpp" 1
 230              	    sip &= ~(1ULL << 9);
 1353              		csrr a5, sip
 1354              	# 0 "" 2
 1355              	.LVL105:
 1356              		.loc 1 230 5 is_stmt 1
 1357              		.loc 1 230 9 is_stmt 0
 1358              	#NO_APP
 1359 03d4 93F7F7DF 		andi	a5,a5,-513
 1360              	.LVL106:
 231:src/syscall_c.cpp ****     __asm__ volatile("csrw sip, %0": : "r"(sip));
 1361              		.loc 1 231 5 is_stmt 1
 1362              		.loc 1 231 49 is_stmt 0
 1363              	#APP
 1364              	# 231 "src/syscall_c.cpp" 1
 232              	    uint64 scause;
 1365              		csrw sip, a5
 1366              	# 0 "" 2
 1367              		.loc 1 232 5 is_stmt 1
 233:src/syscall_c.cpp ****     __asm__ volatile("csrr %0, scause": "=r"(scause));
 1368              		.loc 1 233 5
 1369              		.loc 1 233 54 is_stmt 0
 1370              	# 233 "src/syscall_c.cpp" 1
 234              	    if (scause == 0x8000000000000009)
 1371              		csrr a4, scause
 1372              	# 0 "" 2
 1373              	.LVL107:
 1374              		.loc 1 234 5 is_stmt 1
 1375              	#NO_APP
 1376              	.LBB277:
 1377 03e0 9307F0FF 		li	a5,-1
GAS LISTING /tmp/ccpYVhxp.s 			page 34


 1378              	.LVL108:
 1379 03e4 9397F703 		slli	a5,a5,63
 1380 03e8 93879700 		addi	a5,a5,9
 1381 03ec 6304F700 		beq	a4,a5,.L57
 1382 03f0 67800000 		ret
 1383              	.L57:
 1384              	.LBE277:
 227:src/syscall_c.cpp ****     uint64 sip;
 1385              		.loc 1 227 1 is_stmt 0
 1386 03f4 130101FF 		addi	sp,sp,-16
 1387              		.cfi_def_cfa_offset 16
 1388 03f8 23341100 		sd	ra,8(sp)
 1389 03fc 23308100 		sd	s0,0(sp)
 1390              		.cfi_offset 1, -8
 1391              		.cfi_offset 8, -16
 1392 0400 13040101 		addi	s0,sp,16
 1393              		.cfi_def_cfa 8, 0
 1394              	.LBB281:
 1395              	.LBB278:
 235:src/syscall_c.cpp ****     {
 236:src/syscall_c.cpp ****         int irq = plic_claim();
 1396              		.loc 1 236 9 is_stmt 1
 1397              		.loc 1 236 29 is_stmt 0
 1398 0404 97000000 		call	plic_claim@plt
 1398      E7800000 
 1399              	.LVL109:
 237:src/syscall_c.cpp ****         if (irq != CONSOLE_IRQ)
 1400              		.loc 1 237 9 is_stmt 1
 1401 040c 9307A000 		li	a5,10
 1402 0410 6312F506 		bne	a0,a5,.L58
 1403              	.LVL110:
 1404              	.L50:
 238:src/syscall_c.cpp ****         {
 239:src/syscall_c.cpp ****             plic_complete(irq);
 240:src/syscall_c.cpp ****             return;
 241:src/syscall_c.cpp ****         }
 242:src/syscall_c.cpp ****         while (!_buffer::isFull(_buffer::getcBuffer) && ((*((char*)CONSOLE_STATUS)) & CONSOLE_RX_ST
 1405              		.loc 1 242 9
 1406              		.loc 1 242 54
 1407              		.loc 1 242 32 is_stmt 0
 1408 0414 97070000 		la	a5,_ZN7_buffer10getcBufferE
 1408      83B70700 
 1409 041c 03B50700 		ld	a0,0(a5)
 1410 0420 97000000 		call	_ZN7_buffer6isFullEPS_@plt
 1410      E7800000 
 1411              	.LVL111:
 1412              		.loc 1 242 54
 1413 0428 631C0504 		bnez	a0,.L48
 1414              		.loc 1 242 59 discriminator 1
 1415 042c 97070000 		la	a5,CONSOLE_STATUS
 1415      83B70700 
 1416 0434 83B70700 		ld	a5,0(a5)
 1417 0438 83C70700 		lbu	a5,0(a5)
 1418              		.loc 1 242 54 discriminator 1
 1419 043c 93F71700 		andi	a5,a5,1
 1420 0440 63800704 		beqz	a5,.L48
 1421              	.LBB279:
GAS LISTING /tmp/ccpYVhxp.s 			page 35


 243:src/syscall_c.cpp ****         {
 244:src/syscall_c.cpp ****             char c = *((char*)CONSOLE_RX_DATA);
 1422              		.loc 1 244 13 is_stmt 1
 1423              		.loc 1 244 22 is_stmt 0
 1424 0444 97070000 		la	a5,CONSOLE_RX_DATA
 1424      83B70700 
 1425 044c 83B70700 		ld	a5,0(a5)
 1426              		.loc 1 244 18
 1427 0450 83C50700 		lbu	a1,0(a5)
 1428              	.LVL112:
 245:src/syscall_c.cpp ****             if(c != 0)
 1429              		.loc 1 245 13 is_stmt 1
 1430 0454 E38005FC 		beqz	a1,.L50
 246:src/syscall_c.cpp ****                 _buffer::produce(_buffer::getcBuffer, c, true);
 1431              		.loc 1 246 17
 1432              		.loc 1 246 33 is_stmt 0
 1433 0458 13061000 		li	a2,1
 1434 045c 97070000 		la	a5,_ZN7_buffer10getcBufferE
 1434      83B70700 
 1435 0464 03B50700 		ld	a0,0(a5)
 1436 0468 97000000 		call	_ZN7_buffer7produceEPS_cb@plt
 1436      E7800000 
 1437              	.LVL113:
 1438 0470 6FF05FFA 		j	.L50
 1439              	.LVL114:
 1440              	.L58:
 1441              	.LBE279:
 239:src/syscall_c.cpp ****             return;
 1442              		.loc 1 239 13 is_stmt 1
 239:src/syscall_c.cpp ****             return;
 1443              		.loc 1 239 26 is_stmt 0
 1444 0474 97000000 		call	plic_complete@plt
 1444      E7800000 
 1445              	.LVL115:
 240:src/syscall_c.cpp ****         }
 1446              		.loc 1 240 13 is_stmt 1
 1447 047c 6F00C001 		j	.L45
 1448              	.L48:
 247:src/syscall_c.cpp ****         }
 248:src/syscall_c.cpp ****         if (!_buffer::isFull(_buffer::getcBuffer))
 1449              		.loc 1 248 9
 1450              		.loc 1 248 29 is_stmt 0
 1451 0480 97070000 		la	a5,_ZN7_buffer10getcBufferE
 1451      83B70700 
 1452 0488 03B50700 		ld	a0,0(a5)
 1453 048c 97000000 		call	_ZN7_buffer6isFullEPS_@plt
 1453      E7800000 
 1454              	.LVL116:
 1455              		.loc 1 248 9
 1456 0494 630A0500 		beqz	a0,.L59
 1457              	.L45:
 1458              	.LBE278:
 1459              	.LBE281:
 249:src/syscall_c.cpp ****             plic_complete(CONSOLE_IRQ);
 250:src/syscall_c.cpp ****     }
 251:src/syscall_c.cpp **** }
 1460              		.loc 1 251 1
GAS LISTING /tmp/ccpYVhxp.s 			page 36


 1461 0498 83308100 		ld	ra,8(sp)
 1462              		.cfi_remember_state
 1463              		.cfi_restore 1
 1464 049c 03340100 		ld	s0,0(sp)
 1465              		.cfi_restore 8
 1466              		.cfi_def_cfa 2, 16
 1467 04a0 13010101 		addi	sp,sp,16
 1468              		.cfi_def_cfa_offset 0
 1469 04a4 67800000 		jr	ra
 1470              	.L59:
 1471              		.cfi_restore_state
 1472              	.LBB282:
 1473              	.LBB280:
 249:src/syscall_c.cpp ****             plic_complete(CONSOLE_IRQ);
 1474              		.loc 1 249 13 is_stmt 1
 249:src/syscall_c.cpp ****             plic_complete(CONSOLE_IRQ);
 1475              		.loc 1 249 26 is_stmt 0
 1476 04a8 1305A000 		li	a0,10
 1477 04ac 97000000 		call	plic_complete@plt
 1477      E7800000 
 1478              	.LVL117:
 1479 04b4 6FF05FFE 		j	.L45
 1480              	.LBE280:
 1481              	.LBE282:
 1482              		.cfi_endproc
 1483              	.LFE16:
 1485              		.align	2
 1486              		.globl	__ecall_interrupt
 1488              	__ecall_interrupt:
 1489              	.LFB17:
 252:src/syscall_c.cpp **** 
 253:src/syscall_c.cpp **** 
 254:src/syscall_c.cpp **** #ifdef __cplusplus
 255:src/syscall_c.cpp **** extern "C"
 256:src/syscall_c.cpp **** #endif
 257:src/syscall_c.cpp **** void __ecall_interrupt(int sys_call_id, ...)
 258:src/syscall_c.cpp **** {
 1490              		.loc 1 258 1 is_stmt 1
 1491              		.cfi_startproc
 1492              	.LVL118:
 1493 04b8 130101FB 		addi	sp,sp,-80
 1494              		.cfi_def_cfa_offset 80
 1495 04bc 23348100 		sd	s0,8(sp)
 1496              		.cfi_offset 8, -72
 1497 04c0 13040101 		addi	s0,sp,16
 1498              		.cfi_def_cfa 8, 64
 1499 04c4 2334B400 		sd	a1,8(s0)
 1500 04c8 2338C400 		sd	a2,16(s0)
 1501 04cc 233CD400 		sd	a3,24(s0)
 1502 04d0 2330E402 		sd	a4,32(s0)
 1503 04d4 2334F402 		sd	a5,40(s0)
 1504 04d8 23380403 		sd	a6,48(s0)
 1505 04dc 233C1403 		sd	a7,56(s0)
 259:src/syscall_c.cpp ****     __asm__ volatile ("ecall");
 1506              		.loc 1 259 5
 1507              		.loc 1 259 31 is_stmt 0
 1508              	#APP
GAS LISTING /tmp/ccpYVhxp.s 			page 37


 1509              	# 259 "src/syscall_c.cpp" 1
 260              	}
 1510              		ecall
 1511              	# 0 "" 2
 1512              		.loc 1 260 1
 1513              	#NO_APP
 1514 04e4 03348100 		ld	s0,8(sp)
 1515              		.cfi_restore 8
 1516              		.cfi_def_cfa 2, 80
 1517 04e8 13010105 		addi	sp,sp,80
 1518              		.cfi_def_cfa_offset 0
 1519 04ec 67800000 		jr	ra
 1520              		.cfi_endproc
 1521              	.LFE17:
 1523              		.align	2
 1524              		.globl	__mem_alloc
 1526              	__mem_alloc:
 1527              	.LFB18:
 261:src/syscall_c.cpp **** 
 262:src/syscall_c.cpp **** #ifdef __cplusplus
 263:src/syscall_c.cpp **** extern "C"
 264:src/syscall_c.cpp **** #endif
 265:src/syscall_c.cpp **** void* __mem_alloc(size_t size)
 266:src/syscall_c.cpp **** {
 1528              		.loc 1 266 1 is_stmt 1
 1529              		.cfi_startproc
 1530              	.LVL119:
 1531 04f0 130101FF 		addi	sp,sp,-16
 1532              		.cfi_def_cfa_offset 16
 1533 04f4 23341100 		sd	ra,8(sp)
 1534 04f8 23308100 		sd	s0,0(sp)
 1535              		.cfi_offset 1, -8
 1536              		.cfi_offset 8, -16
 1537 04fc 13040101 		addi	s0,sp,16
 1538              		.cfi_def_cfa 8, 0
 267:src/syscall_c.cpp ****     int numOfBlocks = (size + MEM_BLOCK_SIZE - 1) / MEM_BLOCK_SIZE;
 1539              		.loc 1 267 5
 1540              		.loc 1 267 46 is_stmt 0
 1541 0500 9305F503 		addi	a1,a0,63
 1542              		.loc 1 267 51
 1543 0504 93D56500 		srli	a1,a1,6
 1544              	.LVL120:
 268:src/syscall_c.cpp **** 
 269:src/syscall_c.cpp ****     void* ptr;
 1545              		.loc 1 269 5 is_stmt 1
 270:src/syscall_c.cpp ****     __ecall_interrupt(MEM_ALLOC, numOfBlocks);
 1546              		.loc 1 270 5
 1547              		.loc 1 270 22 is_stmt 0
 1548 0508 9B850500 		sext.w	a1,a1
 1549 050c 13051000 		li	a0,1
 1550              	.LVL121:
 1551 0510 97000000 		call	__ecall_interrupt
 1551      E7800000 
 1552              	.LVL122:
 271:src/syscall_c.cpp ****     __asm__ volatile("mv %0, a0": "=r"((uint64)ptr));
 1553              		.loc 1 271 5 is_stmt 1
 1554              		.loc 1 271 53 is_stmt 0
GAS LISTING /tmp/ccpYVhxp.s 			page 38


 1555              	#APP
 1556              	# 271 "src/syscall_c.cpp" 1
 272              	    return ptr;
 1557              		mv a0, a0
 1558              	# 0 "" 2
 1559              	.LVL123:
 1560              		.loc 1 272 5 is_stmt 1
 273:src/syscall_c.cpp **** }
 1561              		.loc 1 273 1 is_stmt 0
 1562              	#NO_APP
 1563 051c 83308100 		ld	ra,8(sp)
 1564              		.cfi_restore 1
 1565 0520 03340100 		ld	s0,0(sp)
 1566              		.cfi_restore 8
 1567              		.cfi_def_cfa 2, 16
 1568 0524 13010101 		addi	sp,sp,16
 1569              		.cfi_def_cfa_offset 0
 1570 0528 67800000 		jr	ra
 1571              		.cfi_endproc
 1572              	.LFE18:
 1574              		.align	2
 1575              		.globl	__mem_free
 1577              	__mem_free:
 1578              	.LFB19:
 274:src/syscall_c.cpp **** 
 275:src/syscall_c.cpp **** #ifdef __cplusplus
 276:src/syscall_c.cpp **** extern "C"
 277:src/syscall_c.cpp **** #endif
 278:src/syscall_c.cpp **** int __mem_free(void* ptr)
 279:src/syscall_c.cpp **** {
 1579              		.loc 1 279 1 is_stmt 1
 1580              		.cfi_startproc
 1581              	.LVL124:
 1582 052c 130101FF 		addi	sp,sp,-16
 1583              		.cfi_def_cfa_offset 16
 1584 0530 23341100 		sd	ra,8(sp)
 1585 0534 23308100 		sd	s0,0(sp)
 1586              		.cfi_offset 1, -8
 1587              		.cfi_offset 8, -16
 1588 0538 13040101 		addi	s0,sp,16
 1589              		.cfi_def_cfa 8, 0
 1590 053c 93050500 		mv	a1,a0
 280:src/syscall_c.cpp ****     __ecall_interrupt(MEM_FREE, ptr);
 1591              		.loc 1 280 5
 1592              		.loc 1 280 22 is_stmt 0
 1593 0540 13052000 		li	a0,2
 1594              	.LVL125:
 1595 0544 97000000 		call	__ecall_interrupt
 1595      E7800000 
 1596              	.LVL126:
 281:src/syscall_c.cpp **** 
 282:src/syscall_c.cpp ****     uint64 res;
 1597              		.loc 1 282 5 is_stmt 1
 283:src/syscall_c.cpp ****     __asm__ volatile("mv %0, a0": "=r"(res));
 1598              		.loc 1 283 5
 1599              		.loc 1 283 45 is_stmt 0
 1600              	#APP
GAS LISTING /tmp/ccpYVhxp.s 			page 39


 1601              	# 283 "src/syscall_c.cpp" 1
 284              	    return res;
 1602              		mv a0, a0
 1603              	# 0 "" 2
 1604              	.LVL127:
 1605              		.loc 1 284 5 is_stmt 1
 285:src/syscall_c.cpp **** }
 1606              		.loc 1 285 1 is_stmt 0
 1607              	#NO_APP
 1608 0550 1B050500 		sext.w	a0,a0
 1609              	.LVL128:
 1610 0554 83308100 		ld	ra,8(sp)
 1611              		.cfi_restore 1
 1612 0558 03340100 		ld	s0,0(sp)
 1613              		.cfi_restore 8
 1614              		.cfi_def_cfa 2, 16
 1615 055c 13010101 		addi	sp,sp,16
 1616              		.cfi_def_cfa_offset 0
 1617 0560 67800000 		jr	ra
 1618              		.cfi_endproc
 1619              	.LFE19:
 1621              		.align	2
 1622              		.globl	thread_create
 1624              	thread_create:
 1625              	.LFB20:
 286:src/syscall_c.cpp **** 
 287:src/syscall_c.cpp **** #ifdef __cplusplus
 288:src/syscall_c.cpp **** extern "C"
 289:src/syscall_c.cpp **** #endif
 290:src/syscall_c.cpp **** int thread_create(thread_t* handle, _thread::Body routine, void*arg)
 291:src/syscall_c.cpp **** {
 1626              		.loc 1 291 1 is_stmt 1
 1627              		.cfi_startproc
 1628              	.LVL129:
 1629 0564 130101FF 		addi	sp,sp,-16
 1630              		.cfi_def_cfa_offset 16
 1631 0568 23341100 		sd	ra,8(sp)
 1632 056c 23308100 		sd	s0,0(sp)
 1633              		.cfi_offset 1, -8
 1634              		.cfi_offset 8, -16
 1635 0570 13040101 		addi	s0,sp,16
 1636              		.cfi_def_cfa 8, 0
 1637 0574 93060600 		mv	a3,a2
 292:src/syscall_c.cpp ****     __ecall_interrupt(THREAD_CREATE, handle, routine, arg);
 1638              		.loc 1 292 5
 1639              		.loc 1 292 22 is_stmt 0
 1640 0578 13860500 		mv	a2,a1
 1641              	.LVL130:
 1642 057c 93050500 		mv	a1,a0
 1643              	.LVL131:
 1644 0580 13051001 		li	a0,17
 1645              	.LVL132:
 1646 0584 97000000 		call	__ecall_interrupt
 1646      E7800000 
 1647              	.LVL133:
 293:src/syscall_c.cpp **** 
 294:src/syscall_c.cpp ****     uint64 res;
GAS LISTING /tmp/ccpYVhxp.s 			page 40


 1648              		.loc 1 294 5 is_stmt 1
 295:src/syscall_c.cpp ****     __asm__ volatile("mv %0, a0": "=r"(res));
 1649              		.loc 1 295 5
 1650              		.loc 1 295 45 is_stmt 0
 1651              	#APP
 1652              	# 295 "src/syscall_c.cpp" 1
 296              	    return (int)res;
 1653              		mv a0, a0
 1654              	# 0 "" 2
 1655              	.LVL134:
 1656              		.loc 1 296 5 is_stmt 1
 297:src/syscall_c.cpp **** }
 1657              		.loc 1 297 1 is_stmt 0
 1658              	#NO_APP
 1659 0590 1B050500 		sext.w	a0,a0
 1660              	.LVL135:
 1661 0594 83308100 		ld	ra,8(sp)
 1662              		.cfi_restore 1
 1663 0598 03340100 		ld	s0,0(sp)
 1664              		.cfi_restore 8
 1665              		.cfi_def_cfa 2, 16
 1666 059c 13010101 		addi	sp,sp,16
 1667              		.cfi_def_cfa_offset 0
 1668 05a0 67800000 		jr	ra
 1669              		.cfi_endproc
 1670              	.LFE20:
 1672              		.align	2
 1673              		.globl	thread_dispatch
 1675              	thread_dispatch:
 1676              	.LFB21:
 298:src/syscall_c.cpp **** 
 299:src/syscall_c.cpp **** #ifdef __cplusplus
 300:src/syscall_c.cpp **** extern "C"
 301:src/syscall_c.cpp **** #endif
 302:src/syscall_c.cpp **** void thread_dispatch()
 303:src/syscall_c.cpp **** {
 1677              		.loc 1 303 1 is_stmt 1
 1678              		.cfi_startproc
 1679 05a4 130101FF 		addi	sp,sp,-16
 1680              		.cfi_def_cfa_offset 16
 1681 05a8 23341100 		sd	ra,8(sp)
 1682 05ac 23308100 		sd	s0,0(sp)
 1683              		.cfi_offset 1, -8
 1684              		.cfi_offset 8, -16
 1685 05b0 13040101 		addi	s0,sp,16
 1686              		.cfi_def_cfa 8, 0
 304:src/syscall_c.cpp ****     __ecall_interrupt(THREAD_DISPATCH);
 1687              		.loc 1 304 5
 1688              		.loc 1 304 22 is_stmt 0
 1689 05b4 13053001 		li	a0,19
 1690 05b8 97000000 		call	__ecall_interrupt
 1690      E7800000 
 1691              	.LVL136:
 305:src/syscall_c.cpp **** }
 1692              		.loc 1 305 1
 1693 05c0 83308100 		ld	ra,8(sp)
 1694              		.cfi_restore 1
GAS LISTING /tmp/ccpYVhxp.s 			page 41


 1695 05c4 03340100 		ld	s0,0(sp)
 1696              		.cfi_restore 8
 1697              		.cfi_def_cfa 2, 16
 1698 05c8 13010101 		addi	sp,sp,16
 1699              		.cfi_def_cfa_offset 0
 1700 05cc 67800000 		jr	ra
 1701              		.cfi_endproc
 1702              	.LFE21:
 1704              		.align	2
 1705              		.globl	thread_exit
 1707              	thread_exit:
 1708              	.LFB22:
 306:src/syscall_c.cpp **** 
 307:src/syscall_c.cpp **** #ifdef __cplusplus
 308:src/syscall_c.cpp **** extern "C"
 309:src/syscall_c.cpp **** #endif
 310:src/syscall_c.cpp **** int thread_exit()
 311:src/syscall_c.cpp **** {
 1709              		.loc 1 311 1 is_stmt 1
 1710              		.cfi_startproc
 1711 05d0 130101FF 		addi	sp,sp,-16
 1712              		.cfi_def_cfa_offset 16
 1713 05d4 23341100 		sd	ra,8(sp)
 1714 05d8 23308100 		sd	s0,0(sp)
 1715              		.cfi_offset 1, -8
 1716              		.cfi_offset 8, -16
 1717 05dc 13040101 		addi	s0,sp,16
 1718              		.cfi_def_cfa 8, 0
 312:src/syscall_c.cpp ****     __ecall_interrupt(THREAD_EXIT);
 1719              		.loc 1 312 5
 1720              		.loc 1 312 22 is_stmt 0
 1721 05e0 13052001 		li	a0,18
 1722 05e4 97000000 		call	__ecall_interrupt
 1722      E7800000 
 1723              	.LVL137:
 313:src/syscall_c.cpp **** 
 314:src/syscall_c.cpp ****     uint64 res;
 1724              		.loc 1 314 5 is_stmt 1
 315:src/syscall_c.cpp ****     __asm__ volatile("mv %0, a0": "=r"(res));
 1725              		.loc 1 315 5
 1726              		.loc 1 315 45 is_stmt 0
 1727              	#APP
 1728              	# 315 "src/syscall_c.cpp" 1
 316              	    return (int)res;
 1729              		mv a0, a0
 1730              	# 0 "" 2
 1731              	.LVL138:
 1732              		.loc 1 316 5 is_stmt 1
 317:src/syscall_c.cpp **** }
 1733              		.loc 1 317 1 is_stmt 0
 1734              	#NO_APP
 1735 05f0 1B050500 		sext.w	a0,a0
 1736              	.LVL139:
 1737 05f4 83308100 		ld	ra,8(sp)
 1738              		.cfi_restore 1
 1739 05f8 03340100 		ld	s0,0(sp)
 1740              		.cfi_restore 8
GAS LISTING /tmp/ccpYVhxp.s 			page 42


 1741              		.cfi_def_cfa 2, 16
 1742 05fc 13010101 		addi	sp,sp,16
 1743              		.cfi_def_cfa_offset 0
 1744 0600 67800000 		jr	ra
 1745              		.cfi_endproc
 1746              	.LFE22:
 1748              		.align	2
 1749              		.globl	sem_open
 1751              	sem_open:
 1752              	.LFB23:
 318:src/syscall_c.cpp **** 
 319:src/syscall_c.cpp **** #ifdef __cplusplus
 320:src/syscall_c.cpp **** extern "C"
 321:src/syscall_c.cpp **** #endif
 322:src/syscall_c.cpp **** int sem_open(sem_t* handle, unsigned init)
 323:src/syscall_c.cpp **** {
 1753              		.loc 1 323 1 is_stmt 1
 1754              		.cfi_startproc
 1755              	.LVL140:
 1756 0604 130101FF 		addi	sp,sp,-16
 1757              		.cfi_def_cfa_offset 16
 1758 0608 23341100 		sd	ra,8(sp)
 1759 060c 23308100 		sd	s0,0(sp)
 1760              		.cfi_offset 1, -8
 1761              		.cfi_offset 8, -16
 1762 0610 13040101 		addi	s0,sp,16
 1763              		.cfi_def_cfa 8, 0
 1764 0614 13860500 		mv	a2,a1
 324:src/syscall_c.cpp ****     __ecall_interrupt(SEM_OPEN, handle, init);
 1765              		.loc 1 324 5
 1766              		.loc 1 324 22 is_stmt 0
 1767 0618 93050500 		mv	a1,a0
 1768              	.LVL141:
 1769 061c 13051002 		li	a0,33
 1770              	.LVL142:
 1771 0620 97000000 		call	__ecall_interrupt
 1771      E7800000 
 1772              	.LVL143:
 325:src/syscall_c.cpp ****     uint64 res;
 1773              		.loc 1 325 5 is_stmt 1
 326:src/syscall_c.cpp ****     __asm__ volatile("mv %0, a0": "=r"(res));
 1774              		.loc 1 326 5
 1775              		.loc 1 326 45 is_stmt 0
 1776              	#APP
 1777              	# 326 "src/syscall_c.cpp" 1
 327              	    return (int)res;
 1778              		mv a0, a0
 1779              	# 0 "" 2
 1780              	.LVL144:
 1781              		.loc 1 327 5 is_stmt 1
 328:src/syscall_c.cpp **** }
 1782              		.loc 1 328 1 is_stmt 0
 1783              	#NO_APP
 1784 062c 1B050500 		sext.w	a0,a0
 1785              	.LVL145:
 1786 0630 83308100 		ld	ra,8(sp)
 1787              		.cfi_restore 1
GAS LISTING /tmp/ccpYVhxp.s 			page 43


 1788 0634 03340100 		ld	s0,0(sp)
 1789              		.cfi_restore 8
 1790              		.cfi_def_cfa 2, 16
 1791 0638 13010101 		addi	sp,sp,16
 1792              		.cfi_def_cfa_offset 0
 1793 063c 67800000 		jr	ra
 1794              		.cfi_endproc
 1795              	.LFE23:
 1797              		.align	2
 1798              		.globl	sem_close
 1800              	sem_close:
 1801              	.LFB24:
 329:src/syscall_c.cpp **** 
 330:src/syscall_c.cpp **** #ifdef __cplusplus
 331:src/syscall_c.cpp **** extern "C"
 332:src/syscall_c.cpp **** #endif
 333:src/syscall_c.cpp **** int sem_close (sem_t handle)
 334:src/syscall_c.cpp **** {
 1802              		.loc 1 334 1 is_stmt 1
 1803              		.cfi_startproc
 1804              	.LVL146:
 1805 0640 130101FF 		addi	sp,sp,-16
 1806              		.cfi_def_cfa_offset 16
 1807 0644 23341100 		sd	ra,8(sp)
 1808 0648 23308100 		sd	s0,0(sp)
 1809              		.cfi_offset 1, -8
 1810              		.cfi_offset 8, -16
 1811 064c 13040101 		addi	s0,sp,16
 1812              		.cfi_def_cfa 8, 0
 1813 0650 93050500 		mv	a1,a0
 335:src/syscall_c.cpp ****     __ecall_interrupt(SEM_CLOSE, handle);
 1814              		.loc 1 335 5
 1815              		.loc 1 335 22 is_stmt 0
 1816 0654 13052002 		li	a0,34
 1817              	.LVL147:
 1818 0658 97000000 		call	__ecall_interrupt
 1818      E7800000 
 1819              	.LVL148:
 336:src/syscall_c.cpp ****     uint64 res;
 1820              		.loc 1 336 5 is_stmt 1
 337:src/syscall_c.cpp ****     __asm__ volatile("mv %0, a0": "=r"(res));
 1821              		.loc 1 337 5
 1822              		.loc 1 337 45 is_stmt 0
 1823              	#APP
 1824              	# 337 "src/syscall_c.cpp" 1
 338              	    return (int)res;
 1825              		mv a0, a0
 1826              	# 0 "" 2
 1827              	.LVL149:
 1828              		.loc 1 338 5 is_stmt 1
 339:src/syscall_c.cpp **** }
 1829              		.loc 1 339 1 is_stmt 0
 1830              	#NO_APP
 1831 0664 1B050500 		sext.w	a0,a0
 1832              	.LVL150:
 1833 0668 83308100 		ld	ra,8(sp)
 1834              		.cfi_restore 1
GAS LISTING /tmp/ccpYVhxp.s 			page 44


 1835 066c 03340100 		ld	s0,0(sp)
 1836              		.cfi_restore 8
 1837              		.cfi_def_cfa 2, 16
 1838 0670 13010101 		addi	sp,sp,16
 1839              		.cfi_def_cfa_offset 0
 1840 0674 67800000 		jr	ra
 1841              		.cfi_endproc
 1842              	.LFE24:
 1844              		.align	2
 1845              		.globl	sem_wait
 1847              	sem_wait:
 1848              	.LFB25:
 340:src/syscall_c.cpp **** 
 341:src/syscall_c.cpp **** #ifdef __cplusplus
 342:src/syscall_c.cpp **** extern "C"
 343:src/syscall_c.cpp **** #endif
 344:src/syscall_c.cpp **** int sem_wait (sem_t handle)
 345:src/syscall_c.cpp **** {
 1849              		.loc 1 345 1 is_stmt 1
 1850              		.cfi_startproc
 1851              	.LVL151:
 1852 0678 130101FF 		addi	sp,sp,-16
 1853              		.cfi_def_cfa_offset 16
 1854 067c 23341100 		sd	ra,8(sp)
 1855 0680 23308100 		sd	s0,0(sp)
 1856              		.cfi_offset 1, -8
 1857              		.cfi_offset 8, -16
 1858 0684 13040101 		addi	s0,sp,16
 1859              		.cfi_def_cfa 8, 0
 1860 0688 93050500 		mv	a1,a0
 346:src/syscall_c.cpp ****     __ecall_interrupt(SEM_WAIT, handle);
 1861              		.loc 1 346 5
 1862              		.loc 1 346 22 is_stmt 0
 1863 068c 13053002 		li	a0,35
 1864              	.LVL152:
 1865 0690 97000000 		call	__ecall_interrupt
 1865      E7800000 
 1866              	.LVL153:
 347:src/syscall_c.cpp **** 
 348:src/syscall_c.cpp ****     uint64 res;
 1867              		.loc 1 348 5 is_stmt 1
 349:src/syscall_c.cpp ****     __asm__ volatile("mv %0, a0": "=r"(res));
 1868              		.loc 1 349 5
 1869              		.loc 1 349 45 is_stmt 0
 1870              	#APP
 1871              	# 349 "src/syscall_c.cpp" 1
 350              	    return (int)res;
 1872              		mv a0, a0
 1873              	# 0 "" 2
 1874              	.LVL154:
 1875              		.loc 1 350 5 is_stmt 1
 351:src/syscall_c.cpp **** }
 1876              		.loc 1 351 1 is_stmt 0
 1877              	#NO_APP
 1878 069c 1B050500 		sext.w	a0,a0
 1879              	.LVL155:
 1880 06a0 83308100 		ld	ra,8(sp)
GAS LISTING /tmp/ccpYVhxp.s 			page 45


 1881              		.cfi_restore 1
 1882 06a4 03340100 		ld	s0,0(sp)
 1883              		.cfi_restore 8
 1884              		.cfi_def_cfa 2, 16
 1885 06a8 13010101 		addi	sp,sp,16
 1886              		.cfi_def_cfa_offset 0
 1887 06ac 67800000 		jr	ra
 1888              		.cfi_endproc
 1889              	.LFE25:
 1891              		.align	2
 1892              		.globl	sem_signal
 1894              	sem_signal:
 1895              	.LFB26:
 352:src/syscall_c.cpp **** 
 353:src/syscall_c.cpp **** #ifdef __cplusplus
 354:src/syscall_c.cpp **** extern "C"
 355:src/syscall_c.cpp **** #endif
 356:src/syscall_c.cpp **** int sem_signal (sem_t handle)
 357:src/syscall_c.cpp **** {
 1896              		.loc 1 357 1 is_stmt 1
 1897              		.cfi_startproc
 1898              	.LVL156:
 1899 06b0 130101FF 		addi	sp,sp,-16
 1900              		.cfi_def_cfa_offset 16
 1901 06b4 23341100 		sd	ra,8(sp)
 1902 06b8 23308100 		sd	s0,0(sp)
 1903              		.cfi_offset 1, -8
 1904              		.cfi_offset 8, -16
 1905 06bc 13040101 		addi	s0,sp,16
 1906              		.cfi_def_cfa 8, 0
 1907 06c0 93050500 		mv	a1,a0
 358:src/syscall_c.cpp ****     __ecall_interrupt(SEM_SIGNAL, handle);
 1908              		.loc 1 358 5
 1909              		.loc 1 358 22 is_stmt 0
 1910 06c4 13054002 		li	a0,36
 1911              	.LVL157:
 1912 06c8 97000000 		call	__ecall_interrupt
 1912      E7800000 
 1913              	.LVL158:
 359:src/syscall_c.cpp ****     uint64 res;
 1914              		.loc 1 359 5 is_stmt 1
 360:src/syscall_c.cpp ****     __asm__ volatile("mv %0, a0": "=r"(res));
 1915              		.loc 1 360 5
 1916              		.loc 1 360 45 is_stmt 0
 1917              	#APP
 1918              	# 360 "src/syscall_c.cpp" 1
 361              	    return (int)res;
 1919              		mv a0, a0
 1920              	# 0 "" 2
 1921              	.LVL159:
 1922              		.loc 1 361 5 is_stmt 1
 362:src/syscall_c.cpp **** }
 1923              		.loc 1 362 1 is_stmt 0
 1924              	#NO_APP
 1925 06d4 1B050500 		sext.w	a0,a0
 1926              	.LVL160:
 1927 06d8 83308100 		ld	ra,8(sp)
GAS LISTING /tmp/ccpYVhxp.s 			page 46


 1928              		.cfi_restore 1
 1929 06dc 03340100 		ld	s0,0(sp)
 1930              		.cfi_restore 8
 1931              		.cfi_def_cfa 2, 16
 1932 06e0 13010101 		addi	sp,sp,16
 1933              		.cfi_def_cfa_offset 0
 1934 06e4 67800000 		jr	ra
 1935              		.cfi_endproc
 1936              	.LFE26:
 1938              		.align	2
 1939              		.globl	thread_join
 1941              	thread_join:
 1942              	.LFB27:
 363:src/syscall_c.cpp **** 
 364:src/syscall_c.cpp **** #ifdef __cplusplus
 365:src/syscall_c.cpp **** extern "C"
 366:src/syscall_c.cpp **** #endif
 367:src/syscall_c.cpp **** void thread_join(thread_t handle)
 368:src/syscall_c.cpp **** {
 1943              		.loc 1 368 1 is_stmt 1
 1944              		.cfi_startproc
 1945              	.LVL161:
 1946 06e8 130101FF 		addi	sp,sp,-16
 1947              		.cfi_def_cfa_offset 16
 1948 06ec 23341100 		sd	ra,8(sp)
 1949 06f0 23308100 		sd	s0,0(sp)
 1950              		.cfi_offset 1, -8
 1951              		.cfi_offset 8, -16
 1952 06f4 13040101 		addi	s0,sp,16
 1953              		.cfi_def_cfa 8, 0
 1954 06f8 93050500 		mv	a1,a0
 369:src/syscall_c.cpp ****     __ecall_interrupt(THREAD_JOIN, handle);
 1955              		.loc 1 369 5
 1956              		.loc 1 369 22 is_stmt 0
 1957 06fc 13054001 		li	a0,20
 1958              	.LVL162:
 1959 0700 97000000 		call	__ecall_interrupt
 1959      E7800000 
 1960              	.LVL163:
 370:src/syscall_c.cpp **** }
 1961              		.loc 1 370 1
 1962 0708 83308100 		ld	ra,8(sp)
 1963              		.cfi_restore 1
 1964 070c 03340100 		ld	s0,0(sp)
 1965              		.cfi_restore 8
 1966              		.cfi_def_cfa 2, 16
 1967 0710 13010101 		addi	sp,sp,16
 1968              		.cfi_def_cfa_offset 0
 1969 0714 67800000 		jr	ra
 1970              		.cfi_endproc
 1971              	.LFE27:
 1973              		.align	2
 1974              		.globl	putc
 1976              	putc:
 1977              	.LFB28:
 371:src/syscall_c.cpp **** 
 372:src/syscall_c.cpp **** #ifdef __cplusplus
GAS LISTING /tmp/ccpYVhxp.s 			page 47


 373:src/syscall_c.cpp **** extern "C"
 374:src/syscall_c.cpp **** #endif
 375:src/syscall_c.cpp **** void putc(char chr)
 376:src/syscall_c.cpp **** {
 1978              		.loc 1 376 1 is_stmt 1
 1979              		.cfi_startproc
 1980              	.LVL164:
 1981 0718 130101FF 		addi	sp,sp,-16
 1982              		.cfi_def_cfa_offset 16
 1983 071c 23341100 		sd	ra,8(sp)
 1984 0720 23308100 		sd	s0,0(sp)
 1985              		.cfi_offset 1, -8
 1986              		.cfi_offset 8, -16
 1987 0724 13040101 		addi	s0,sp,16
 1988              		.cfi_def_cfa 8, 0
 1989 0728 93050500 		mv	a1,a0
 377:src/syscall_c.cpp ****     __ecall_interrupt(PUTC, chr);
 1990              		.loc 1 377 5
 1991              		.loc 1 377 22 is_stmt 0
 1992 072c 13052004 		li	a0,66
 1993              	.LVL165:
 1994 0730 97000000 		call	__ecall_interrupt
 1994      E7800000 
 1995              	.LVL166:
 378:src/syscall_c.cpp **** }
 1996              		.loc 1 378 1
 1997 0738 83308100 		ld	ra,8(sp)
 1998              		.cfi_restore 1
 1999 073c 03340100 		ld	s0,0(sp)
 2000              		.cfi_restore 8
 2001              		.cfi_def_cfa 2, 16
 2002 0740 13010101 		addi	sp,sp,16
 2003              		.cfi_def_cfa_offset 0
 2004 0744 67800000 		jr	ra
 2005              		.cfi_endproc
 2006              	.LFE28:
 2008              		.align	2
 2009              		.globl	getc
 2011              	getc:
 2012              	.LFB29:
 379:src/syscall_c.cpp **** 
 380:src/syscall_c.cpp **** #ifdef __cplusplus
 381:src/syscall_c.cpp **** extern "C"
 382:src/syscall_c.cpp **** #endif
 383:src/syscall_c.cpp **** char getc()
 384:src/syscall_c.cpp **** {
 2013              		.loc 1 384 1 is_stmt 1
 2014              		.cfi_startproc
 2015 0748 130101FF 		addi	sp,sp,-16
 2016              		.cfi_def_cfa_offset 16
 2017 074c 23341100 		sd	ra,8(sp)
 2018 0750 23308100 		sd	s0,0(sp)
 2019              		.cfi_offset 1, -8
 2020              		.cfi_offset 8, -16
 2021 0754 13040101 		addi	s0,sp,16
 2022              		.cfi_def_cfa 8, 0
 385:src/syscall_c.cpp ****     __ecall_interrupt(GETC);
GAS LISTING /tmp/ccpYVhxp.s 			page 48


 2023              		.loc 1 385 5
 2024              		.loc 1 385 22 is_stmt 0
 2025 0758 13051004 		li	a0,65
 2026 075c 97000000 		call	__ecall_interrupt
 2026      E7800000 
 2027              	.LVL167:
 386:src/syscall_c.cpp **** 
 387:src/syscall_c.cpp ****     uint64 res;
 2028              		.loc 1 387 5 is_stmt 1
 388:src/syscall_c.cpp ****     __asm__ volatile("mv %0, a0": "=r"(res));
 2029              		.loc 1 388 5
 2030              		.loc 1 388 45 is_stmt 0
 2031              	#APP
 2032              	# 388 "src/syscall_c.cpp" 1
 389              	    return (char)res;
 2033              		mv a0, a0
 2034              	# 0 "" 2
 2035              	.LVL168:
 2036              		.loc 1 389 5 is_stmt 1
 390:src/syscall_c.cpp **** }
 2037              		.loc 1 390 1 is_stmt 0
 2038              	#NO_APP
 2039 0768 1375F50F 		andi	a0,a0,0xff
 2040              	.LVL169:
 2041 076c 83308100 		ld	ra,8(sp)
 2042              		.cfi_restore 1
 2043 0770 03340100 		ld	s0,0(sp)
 2044              		.cfi_restore 8
 2045              		.cfi_def_cfa 2, 16
 2046 0774 13010101 		addi	sp,sp,16
 2047              		.cfi_def_cfa_offset 0
 2048 0778 67800000 		jr	ra
 2049              		.cfi_endproc
 2050              	.LFE29:
 2052              		.align	2
 2053              		.globl	time_sleep
 2055              	time_sleep:
 2056              	.LFB30:
 391:src/syscall_c.cpp **** 
 392:src/syscall_c.cpp **** #ifdef __cplusplus
 393:src/syscall_c.cpp **** extern "C"
 394:src/syscall_c.cpp **** #endif
 395:src/syscall_c.cpp **** int time_sleep(time_t t)
 396:src/syscall_c.cpp **** {
 2057              		.loc 1 396 1 is_stmt 1
 2058              		.cfi_startproc
 2059              	.LVL170:
 397:src/syscall_c.cpp ****     if (t == 0)
 2060              		.loc 1 397 5
 2061 077c 63160500 		bnez	a0,.L93
 398:src/syscall_c.cpp ****         return 0;
 2062              		.loc 1 398 16 is_stmt 0
 2063 0780 13050000 		li	a0,0
 2064              	.LVL171:
 399:src/syscall_c.cpp ****     __ecall_interrupt(SLEEP, t);
 400:src/syscall_c.cpp **** 
 401:src/syscall_c.cpp ****     uint64 res;
GAS LISTING /tmp/ccpYVhxp.s 			page 49


 402:src/syscall_c.cpp ****     __asm__ volatile("mv %0, a0": "=r"(res));
 403:src/syscall_c.cpp ****     return (int)res;
 404:src/syscall_c.cpp **** }
 2065              		.loc 1 404 1
 2066 0784 67800000 		ret
 2067              	.LVL172:
 2068              	.L93:
 396:src/syscall_c.cpp ****     if (t == 0)
 2069              		.loc 1 396 1
 2070 0788 130101FF 		addi	sp,sp,-16
 2071              		.cfi_def_cfa_offset 16
 2072 078c 23341100 		sd	ra,8(sp)
 2073 0790 23308100 		sd	s0,0(sp)
 2074              		.cfi_offset 1, -8
 2075              		.cfi_offset 8, -16
 2076 0794 13040101 		addi	s0,sp,16
 2077              		.cfi_def_cfa 8, 0
 399:src/syscall_c.cpp ****     __ecall_interrupt(SLEEP, t);
 2078              		.loc 1 399 5 is_stmt 1
 399:src/syscall_c.cpp ****     __ecall_interrupt(SLEEP, t);
 2079              		.loc 1 399 22 is_stmt 0
 2080 0798 93050500 		mv	a1,a0
 2081 079c 13051003 		li	a0,49
 2082              	.LVL173:
 2083 07a0 97000000 		call	__ecall_interrupt
 2083      E7800000 
 2084              	.LVL174:
 401:src/syscall_c.cpp ****     __asm__ volatile("mv %0, a0": "=r"(res));
 2085              		.loc 1 401 5 is_stmt 1
 402:src/syscall_c.cpp ****     return (int)res;
 2086              		.loc 1 402 5
 402:src/syscall_c.cpp ****     return (int)res;
 2087              		.loc 1 402 45 is_stmt 0
 2088              	#APP
 2089              	# 402 "src/syscall_c.cpp" 1
 2090              		mv a0, a0
 2091              	# 0 "" 2
 2092              	.LVL175:
 403:src/syscall_c.cpp **** }
 2093              		.loc 1 403 5 is_stmt 1
 403:src/syscall_c.cpp **** }
 2094              		.loc 1 403 17 is_stmt 0
 2095              	#NO_APP
 2096 07ac 1B050500 		sext.w	a0,a0
 2097              	.LVL176:
 2098              		.loc 1 404 1
 2099 07b0 83308100 		ld	ra,8(sp)
 2100              		.cfi_restore 1
 2101 07b4 03340100 		ld	s0,0(sp)
 2102              		.cfi_restore 8
 2103              		.cfi_def_cfa 2, 16
 2104 07b8 13010101 		addi	sp,sp,16
 2105              		.cfi_def_cfa_offset 0
 2106 07bc 67800000 		jr	ra
 2107              		.cfi_endproc
 2108              	.LFE30:
 2110              		.align	2
GAS LISTING /tmp/ccpYVhxp.s 			page 50


 2111              		.globl	disable_interrupt
 2113              	disable_interrupt:
 2114              	.LFB31:
 405:src/syscall_c.cpp **** 
 406:src/syscall_c.cpp **** #ifdef __cplusplus
 407:src/syscall_c.cpp **** extern "C"
 408:src/syscall_c.cpp **** #endif
 409:src/syscall_c.cpp **** void disable_interrupt()
 410:src/syscall_c.cpp **** {
 2115              		.loc 1 410 1 is_stmt 1
 2116              		.cfi_startproc
 2117 07c0 130101FF 		addi	sp,sp,-16
 2118              		.cfi_def_cfa_offset 16
 2119 07c4 23341100 		sd	ra,8(sp)
 2120 07c8 23308100 		sd	s0,0(sp)
 2121              		.cfi_offset 1, -8
 2122              		.cfi_offset 8, -16
 2123 07cc 13040101 		addi	s0,sp,16
 2124              		.cfi_def_cfa 8, 0
 411:src/syscall_c.cpp ****     __ecall_interrupt(DISABLE_INTERRUPT);
 2125              		.loc 1 411 5
 2126              		.loc 1 411 22 is_stmt 0
 2127 07d0 13050006 		li	a0,96
 2128 07d4 97000000 		call	__ecall_interrupt
 2128      E7800000 
 2129              	.LVL177:
 412:src/syscall_c.cpp **** }
 2130              		.loc 1 412 1
 2131 07dc 83308100 		ld	ra,8(sp)
 2132              		.cfi_restore 1
 2133 07e0 03340100 		ld	s0,0(sp)
 2134              		.cfi_restore 8
 2135              		.cfi_def_cfa 2, 16
 2136 07e4 13010101 		addi	sp,sp,16
 2137              		.cfi_def_cfa_offset 0
 2138 07e8 67800000 		jr	ra
 2139              		.cfi_endproc
 2140              	.LFE31:
 2142              		.align	2
 2143              		.globl	enable_interrupt
 2145              	enable_interrupt:
 2146              	.LFB32:
 413:src/syscall_c.cpp **** 
 414:src/syscall_c.cpp **** #ifdef __cplusplus
 415:src/syscall_c.cpp **** extern "C"
 416:src/syscall_c.cpp **** #endif
 417:src/syscall_c.cpp **** void enable_interrupt()
 418:src/syscall_c.cpp **** {
 2147              		.loc 1 418 1 is_stmt 1
 2148              		.cfi_startproc
 2149 07ec 130101FF 		addi	sp,sp,-16
 2150              		.cfi_def_cfa_offset 16
 2151 07f0 23341100 		sd	ra,8(sp)
 2152 07f4 23308100 		sd	s0,0(sp)
 2153              		.cfi_offset 1, -8
 2154              		.cfi_offset 8, -16
 2155 07f8 13040101 		addi	s0,sp,16
GAS LISTING /tmp/ccpYVhxp.s 			page 51


 2156              		.cfi_def_cfa 8, 0
 419:src/syscall_c.cpp ****     __ecall_interrupt(ENABLE_INTERRUPT);
 2157              		.loc 1 419 5
 2158              		.loc 1 419 22 is_stmt 0
 2159 07fc 13051006 		li	a0,97
 2160 0800 97000000 		call	__ecall_interrupt
 2160      E7800000 
 2161              	.LVL178:
 420:src/syscall_c.cpp **** }
 2162              		.loc 1 420 1
 2163 0808 83308100 		ld	ra,8(sp)
 2164              		.cfi_restore 1
 2165 080c 03340100 		ld	s0,0(sp)
 2166              		.cfi_restore 8
 2167              		.cfi_def_cfa 2, 16
 2168 0810 13010101 		addi	sp,sp,16
 2169              		.cfi_def_cfa_offset 0
 2170 0814 67800000 		jr	ra
 2171              		.cfi_endproc
 2172              	.LFE32:
 2174              	.Letext0:
 2175              		.file 2 "src/../lib/hw.h"
 2176              		.file 3 "src/../h/MemoryAllocator.hpp"
 2177              		.file 4 "src/../h/Scheduler.hpp"
 2178              		.file 5 "src/../h/_thread.hpp"
 2179              		.file 6 "src/../h/_sem.hpp"
 2180              		.file 7 "src/../h/_buffer.hpp"
GAS LISTING /tmp/ccpYVhxp.s 			page 52

